
rtarget:     file format elf64-x86-64


Disassembly of section .init:

0000000000001000 <_init>:
    1000:	f3 0f 1e fa          	endbr64 
    1004:	48 83 ec 08          	sub    $0x8,%rsp
    1008:	48 8b 05 d9 5f 00 00 	mov    0x5fd9(%rip),%rax        # 6fe8 <__gmon_start__>
    100f:	48 85 c0             	test   %rax,%rax
    1012:	74 02                	je     1016 <_init+0x16>
    1014:	ff d0                	callq  *%rax
    1016:	48 83 c4 08          	add    $0x8,%rsp
    101a:	c3                   	retq   

Disassembly of section .plt:

0000000000001020 <.plt>:
    1020:	ff 35 9a 5e 00 00    	pushq  0x5e9a(%rip)        # 6ec0 <_GLOBAL_OFFSET_TABLE_+0x8>
    1026:	f2 ff 25 9b 5e 00 00 	bnd jmpq *0x5e9b(%rip)        # 6ec8 <_GLOBAL_OFFSET_TABLE_+0x10>
    102d:	0f 1f 00             	nopl   (%rax)
    1030:	f3 0f 1e fa          	endbr64 
    1034:	68 00 00 00 00       	pushq  $0x0
    1039:	f2 e9 e1 ff ff ff    	bnd jmpq 1020 <.plt>
    103f:	90                   	nop
    1040:	f3 0f 1e fa          	endbr64 
    1044:	68 01 00 00 00       	pushq  $0x1
    1049:	f2 e9 d1 ff ff ff    	bnd jmpq 1020 <.plt>
    104f:	90                   	nop
    1050:	f3 0f 1e fa          	endbr64 
    1054:	68 02 00 00 00       	pushq  $0x2
    1059:	f2 e9 c1 ff ff ff    	bnd jmpq 1020 <.plt>
    105f:	90                   	nop
    1060:	f3 0f 1e fa          	endbr64 
    1064:	68 03 00 00 00       	pushq  $0x3
    1069:	f2 e9 b1 ff ff ff    	bnd jmpq 1020 <.plt>
    106f:	90                   	nop
    1070:	f3 0f 1e fa          	endbr64 
    1074:	68 04 00 00 00       	pushq  $0x4
    1079:	f2 e9 a1 ff ff ff    	bnd jmpq 1020 <.plt>
    107f:	90                   	nop
    1080:	f3 0f 1e fa          	endbr64 
    1084:	68 05 00 00 00       	pushq  $0x5
    1089:	f2 e9 91 ff ff ff    	bnd jmpq 1020 <.plt>
    108f:	90                   	nop
    1090:	f3 0f 1e fa          	endbr64 
    1094:	68 06 00 00 00       	pushq  $0x6
    1099:	f2 e9 81 ff ff ff    	bnd jmpq 1020 <.plt>
    109f:	90                   	nop
    10a0:	f3 0f 1e fa          	endbr64 
    10a4:	68 07 00 00 00       	pushq  $0x7
    10a9:	f2 e9 71 ff ff ff    	bnd jmpq 1020 <.plt>
    10af:	90                   	nop
    10b0:	f3 0f 1e fa          	endbr64 
    10b4:	68 08 00 00 00       	pushq  $0x8
    10b9:	f2 e9 61 ff ff ff    	bnd jmpq 1020 <.plt>
    10bf:	90                   	nop
    10c0:	f3 0f 1e fa          	endbr64 
    10c4:	68 09 00 00 00       	pushq  $0x9
    10c9:	f2 e9 51 ff ff ff    	bnd jmpq 1020 <.plt>
    10cf:	90                   	nop
    10d0:	f3 0f 1e fa          	endbr64 
    10d4:	68 0a 00 00 00       	pushq  $0xa
    10d9:	f2 e9 41 ff ff ff    	bnd jmpq 1020 <.plt>
    10df:	90                   	nop
    10e0:	f3 0f 1e fa          	endbr64 
    10e4:	68 0b 00 00 00       	pushq  $0xb
    10e9:	f2 e9 31 ff ff ff    	bnd jmpq 1020 <.plt>
    10ef:	90                   	nop
    10f0:	f3 0f 1e fa          	endbr64 
    10f4:	68 0c 00 00 00       	pushq  $0xc
    10f9:	f2 e9 21 ff ff ff    	bnd jmpq 1020 <.plt>
    10ff:	90                   	nop
    1100:	f3 0f 1e fa          	endbr64 
    1104:	68 0d 00 00 00       	pushq  $0xd
    1109:	f2 e9 11 ff ff ff    	bnd jmpq 1020 <.plt>
    110f:	90                   	nop
    1110:	f3 0f 1e fa          	endbr64 
    1114:	68 0e 00 00 00       	pushq  $0xe
    1119:	f2 e9 01 ff ff ff    	bnd jmpq 1020 <.plt>
    111f:	90                   	nop
    1120:	f3 0f 1e fa          	endbr64 
    1124:	68 0f 00 00 00       	pushq  $0xf
    1129:	f2 e9 f1 fe ff ff    	bnd jmpq 1020 <.plt>
    112f:	90                   	nop
    1130:	f3 0f 1e fa          	endbr64 
    1134:	68 10 00 00 00       	pushq  $0x10
    1139:	f2 e9 e1 fe ff ff    	bnd jmpq 1020 <.plt>
    113f:	90                   	nop
    1140:	f3 0f 1e fa          	endbr64 
    1144:	68 11 00 00 00       	pushq  $0x11
    1149:	f2 e9 d1 fe ff ff    	bnd jmpq 1020 <.plt>
    114f:	90                   	nop
    1150:	f3 0f 1e fa          	endbr64 
    1154:	68 12 00 00 00       	pushq  $0x12
    1159:	f2 e9 c1 fe ff ff    	bnd jmpq 1020 <.plt>
    115f:	90                   	nop
    1160:	f3 0f 1e fa          	endbr64 
    1164:	68 13 00 00 00       	pushq  $0x13
    1169:	f2 e9 b1 fe ff ff    	bnd jmpq 1020 <.plt>
    116f:	90                   	nop
    1170:	f3 0f 1e fa          	endbr64 
    1174:	68 14 00 00 00       	pushq  $0x14
    1179:	f2 e9 a1 fe ff ff    	bnd jmpq 1020 <.plt>
    117f:	90                   	nop
    1180:	f3 0f 1e fa          	endbr64 
    1184:	68 15 00 00 00       	pushq  $0x15
    1189:	f2 e9 91 fe ff ff    	bnd jmpq 1020 <.plt>
    118f:	90                   	nop
    1190:	f3 0f 1e fa          	endbr64 
    1194:	68 16 00 00 00       	pushq  $0x16
    1199:	f2 e9 81 fe ff ff    	bnd jmpq 1020 <.plt>
    119f:	90                   	nop
    11a0:	f3 0f 1e fa          	endbr64 
    11a4:	68 17 00 00 00       	pushq  $0x17
    11a9:	f2 e9 71 fe ff ff    	bnd jmpq 1020 <.plt>
    11af:	90                   	nop
    11b0:	f3 0f 1e fa          	endbr64 
    11b4:	68 18 00 00 00       	pushq  $0x18
    11b9:	f2 e9 61 fe ff ff    	bnd jmpq 1020 <.plt>
    11bf:	90                   	nop
    11c0:	f3 0f 1e fa          	endbr64 
    11c4:	68 19 00 00 00       	pushq  $0x19
    11c9:	f2 e9 51 fe ff ff    	bnd jmpq 1020 <.plt>
    11cf:	90                   	nop
    11d0:	f3 0f 1e fa          	endbr64 
    11d4:	68 1a 00 00 00       	pushq  $0x1a
    11d9:	f2 e9 41 fe ff ff    	bnd jmpq 1020 <.plt>
    11df:	90                   	nop
    11e0:	f3 0f 1e fa          	endbr64 
    11e4:	68 1b 00 00 00       	pushq  $0x1b
    11e9:	f2 e9 31 fe ff ff    	bnd jmpq 1020 <.plt>
    11ef:	90                   	nop
    11f0:	f3 0f 1e fa          	endbr64 
    11f4:	68 1c 00 00 00       	pushq  $0x1c
    11f9:	f2 e9 21 fe ff ff    	bnd jmpq 1020 <.plt>
    11ff:	90                   	nop
    1200:	f3 0f 1e fa          	endbr64 
    1204:	68 1d 00 00 00       	pushq  $0x1d
    1209:	f2 e9 11 fe ff ff    	bnd jmpq 1020 <.plt>
    120f:	90                   	nop
    1210:	f3 0f 1e fa          	endbr64 
    1214:	68 1e 00 00 00       	pushq  $0x1e
    1219:	f2 e9 01 fe ff ff    	bnd jmpq 1020 <.plt>
    121f:	90                   	nop
    1220:	f3 0f 1e fa          	endbr64 
    1224:	68 1f 00 00 00       	pushq  $0x1f
    1229:	f2 e9 f1 fd ff ff    	bnd jmpq 1020 <.plt>
    122f:	90                   	nop
    1230:	f3 0f 1e fa          	endbr64 
    1234:	68 20 00 00 00       	pushq  $0x20
    1239:	f2 e9 e1 fd ff ff    	bnd jmpq 1020 <.plt>
    123f:	90                   	nop

Disassembly of section .plt.got:

0000000000001240 <__cxa_finalize@plt>:
    1240:	f3 0f 1e fa          	endbr64 
    1244:	f2 ff 25 ad 5d 00 00 	bnd jmpq *0x5dad(%rip)        # 6ff8 <__cxa_finalize@GLIBC_2.2.5>
    124b:	0f 1f 44 00 00       	nopl   0x0(%rax,%rax,1)

Disassembly of section .plt.sec:

0000000000001250 <strcasecmp@plt>:
    1250:	f3 0f 1e fa          	endbr64 
    1254:	f2 ff 25 75 5c 00 00 	bnd jmpq *0x5c75(%rip)        # 6ed0 <strcasecmp@GLIBC_2.2.5>
    125b:	0f 1f 44 00 00       	nopl   0x0(%rax,%rax,1)

0000000000001260 <__errno_location@plt>:
    1260:	f3 0f 1e fa          	endbr64 
    1264:	f2 ff 25 6d 5c 00 00 	bnd jmpq *0x5c6d(%rip)        # 6ed8 <__errno_location@GLIBC_2.2.5>
    126b:	0f 1f 44 00 00       	nopl   0x0(%rax,%rax,1)

0000000000001270 <srandom@plt>:
    1270:	f3 0f 1e fa          	endbr64 
    1274:	f2 ff 25 65 5c 00 00 	bnd jmpq *0x5c65(%rip)        # 6ee0 <srandom@GLIBC_2.2.5>
    127b:	0f 1f 44 00 00       	nopl   0x0(%rax,%rax,1)

0000000000001280 <strncmp@plt>:
    1280:	f3 0f 1e fa          	endbr64 
    1284:	f2 ff 25 5d 5c 00 00 	bnd jmpq *0x5c5d(%rip)        # 6ee8 <strncmp@GLIBC_2.2.5>
    128b:	0f 1f 44 00 00       	nopl   0x0(%rax,%rax,1)

0000000000001290 <strcpy@plt>:
    1290:	f3 0f 1e fa          	endbr64 
    1294:	f2 ff 25 55 5c 00 00 	bnd jmpq *0x5c55(%rip)        # 6ef0 <strcpy@GLIBC_2.2.5>
    129b:	0f 1f 44 00 00       	nopl   0x0(%rax,%rax,1)

00000000000012a0 <puts@plt>:
    12a0:	f3 0f 1e fa          	endbr64 
    12a4:	f2 ff 25 4d 5c 00 00 	bnd jmpq *0x5c4d(%rip)        # 6ef8 <puts@GLIBC_2.2.5>
    12ab:	0f 1f 44 00 00       	nopl   0x0(%rax,%rax,1)

00000000000012b0 <write@plt>:
    12b0:	f3 0f 1e fa          	endbr64 
    12b4:	f2 ff 25 45 5c 00 00 	bnd jmpq *0x5c45(%rip)        # 6f00 <write@GLIBC_2.2.5>
    12bb:	0f 1f 44 00 00       	nopl   0x0(%rax,%rax,1)

00000000000012c0 <__stack_chk_fail@plt>:
    12c0:	f3 0f 1e fa          	endbr64 
    12c4:	f2 ff 25 3d 5c 00 00 	bnd jmpq *0x5c3d(%rip)        # 6f08 <__stack_chk_fail@GLIBC_2.4>
    12cb:	0f 1f 44 00 00       	nopl   0x0(%rax,%rax,1)

00000000000012d0 <mmap@plt>:
    12d0:	f3 0f 1e fa          	endbr64 
    12d4:	f2 ff 25 35 5c 00 00 	bnd jmpq *0x5c35(%rip)        # 6f10 <mmap@GLIBC_2.2.5>
    12db:	0f 1f 44 00 00       	nopl   0x0(%rax,%rax,1)

00000000000012e0 <memset@plt>:
    12e0:	f3 0f 1e fa          	endbr64 
    12e4:	f2 ff 25 2d 5c 00 00 	bnd jmpq *0x5c2d(%rip)        # 6f18 <memset@GLIBC_2.2.5>
    12eb:	0f 1f 44 00 00       	nopl   0x0(%rax,%rax,1)

00000000000012f0 <alarm@plt>:
    12f0:	f3 0f 1e fa          	endbr64 
    12f4:	f2 ff 25 25 5c 00 00 	bnd jmpq *0x5c25(%rip)        # 6f20 <alarm@GLIBC_2.2.5>
    12fb:	0f 1f 44 00 00       	nopl   0x0(%rax,%rax,1)

0000000000001300 <close@plt>:
    1300:	f3 0f 1e fa          	endbr64 
    1304:	f2 ff 25 1d 5c 00 00 	bnd jmpq *0x5c1d(%rip)        # 6f28 <close@GLIBC_2.2.5>
    130b:	0f 1f 44 00 00       	nopl   0x0(%rax,%rax,1)

0000000000001310 <read@plt>:
    1310:	f3 0f 1e fa          	endbr64 
    1314:	f2 ff 25 15 5c 00 00 	bnd jmpq *0x5c15(%rip)        # 6f30 <read@GLIBC_2.2.5>
    131b:	0f 1f 44 00 00       	nopl   0x0(%rax,%rax,1)

0000000000001320 <signal@plt>:
    1320:	f3 0f 1e fa          	endbr64 
    1324:	f2 ff 25 0d 5c 00 00 	bnd jmpq *0x5c0d(%rip)        # 6f38 <signal@GLIBC_2.2.5>
    132b:	0f 1f 44 00 00       	nopl   0x0(%rax,%rax,1)

0000000000001330 <gethostbyname@plt>:
    1330:	f3 0f 1e fa          	endbr64 
    1334:	f2 ff 25 05 5c 00 00 	bnd jmpq *0x5c05(%rip)        # 6f40 <gethostbyname@GLIBC_2.2.5>
    133b:	0f 1f 44 00 00       	nopl   0x0(%rax,%rax,1)

0000000000001340 <__memmove_chk@plt>:
    1340:	f3 0f 1e fa          	endbr64 
    1344:	f2 ff 25 fd 5b 00 00 	bnd jmpq *0x5bfd(%rip)        # 6f48 <__memmove_chk@GLIBC_2.3.4>
    134b:	0f 1f 44 00 00       	nopl   0x0(%rax,%rax,1)

0000000000001350 <strtol@plt>:
    1350:	f3 0f 1e fa          	endbr64 
    1354:	f2 ff 25 f5 5b 00 00 	bnd jmpq *0x5bf5(%rip)        # 6f50 <strtol@GLIBC_2.2.5>
    135b:	0f 1f 44 00 00       	nopl   0x0(%rax,%rax,1)

0000000000001360 <memcpy@plt>:
    1360:	f3 0f 1e fa          	endbr64 
    1364:	f2 ff 25 ed 5b 00 00 	bnd jmpq *0x5bed(%rip)        # 6f58 <memcpy@GLIBC_2.14>
    136b:	0f 1f 44 00 00       	nopl   0x0(%rax,%rax,1)

0000000000001370 <time@plt>:
    1370:	f3 0f 1e fa          	endbr64 
    1374:	f2 ff 25 e5 5b 00 00 	bnd jmpq *0x5be5(%rip)        # 6f60 <time@GLIBC_2.2.5>
    137b:	0f 1f 44 00 00       	nopl   0x0(%rax,%rax,1)

0000000000001380 <random@plt>:
    1380:	f3 0f 1e fa          	endbr64 
    1384:	f2 ff 25 dd 5b 00 00 	bnd jmpq *0x5bdd(%rip)        # 6f68 <random@GLIBC_2.2.5>
    138b:	0f 1f 44 00 00       	nopl   0x0(%rax,%rax,1)

0000000000001390 <__isoc99_sscanf@plt>:
    1390:	f3 0f 1e fa          	endbr64 
    1394:	f2 ff 25 d5 5b 00 00 	bnd jmpq *0x5bd5(%rip)        # 6f70 <__isoc99_sscanf@GLIBC_2.7>
    139b:	0f 1f 44 00 00       	nopl   0x0(%rax,%rax,1)

00000000000013a0 <munmap@plt>:
    13a0:	f3 0f 1e fa          	endbr64 
    13a4:	f2 ff 25 cd 5b 00 00 	bnd jmpq *0x5bcd(%rip)        # 6f78 <munmap@GLIBC_2.2.5>
    13ab:	0f 1f 44 00 00       	nopl   0x0(%rax,%rax,1)

00000000000013b0 <__printf_chk@plt>:
    13b0:	f3 0f 1e fa          	endbr64 
    13b4:	f2 ff 25 c5 5b 00 00 	bnd jmpq *0x5bc5(%rip)        # 6f80 <__printf_chk@GLIBC_2.3.4>
    13bb:	0f 1f 44 00 00       	nopl   0x0(%rax,%rax,1)

00000000000013c0 <fopen@plt>:
    13c0:	f3 0f 1e fa          	endbr64 
    13c4:	f2 ff 25 bd 5b 00 00 	bnd jmpq *0x5bbd(%rip)        # 6f88 <fopen@GLIBC_2.2.5>
    13cb:	0f 1f 44 00 00       	nopl   0x0(%rax,%rax,1)

00000000000013d0 <getopt@plt>:
    13d0:	f3 0f 1e fa          	endbr64 
    13d4:	f2 ff 25 b5 5b 00 00 	bnd jmpq *0x5bb5(%rip)        # 6f90 <getopt@GLIBC_2.2.5>
    13db:	0f 1f 44 00 00       	nopl   0x0(%rax,%rax,1)

00000000000013e0 <strtoul@plt>:
    13e0:	f3 0f 1e fa          	endbr64 
    13e4:	f2 ff 25 ad 5b 00 00 	bnd jmpq *0x5bad(%rip)        # 6f98 <strtoul@GLIBC_2.2.5>
    13eb:	0f 1f 44 00 00       	nopl   0x0(%rax,%rax,1)

00000000000013f0 <gethostname@plt>:
    13f0:	f3 0f 1e fa          	endbr64 
    13f4:	f2 ff 25 a5 5b 00 00 	bnd jmpq *0x5ba5(%rip)        # 6fa0 <gethostname@GLIBC_2.2.5>
    13fb:	0f 1f 44 00 00       	nopl   0x0(%rax,%rax,1)

0000000000001400 <exit@plt>:
    1400:	f3 0f 1e fa          	endbr64 
    1404:	f2 ff 25 9d 5b 00 00 	bnd jmpq *0x5b9d(%rip)        # 6fa8 <exit@GLIBC_2.2.5>
    140b:	0f 1f 44 00 00       	nopl   0x0(%rax,%rax,1)

0000000000001410 <connect@plt>:
    1410:	f3 0f 1e fa          	endbr64 
    1414:	f2 ff 25 95 5b 00 00 	bnd jmpq *0x5b95(%rip)        # 6fb0 <connect@GLIBC_2.2.5>
    141b:	0f 1f 44 00 00       	nopl   0x0(%rax,%rax,1)

0000000000001420 <__fprintf_chk@plt>:
    1420:	f3 0f 1e fa          	endbr64 
    1424:	f2 ff 25 8d 5b 00 00 	bnd jmpq *0x5b8d(%rip)        # 6fb8 <__fprintf_chk@GLIBC_2.3.4>
    142b:	0f 1f 44 00 00       	nopl   0x0(%rax,%rax,1)

0000000000001430 <getc@plt>:
    1430:	f3 0f 1e fa          	endbr64 
    1434:	f2 ff 25 85 5b 00 00 	bnd jmpq *0x5b85(%rip)        # 6fc0 <getc@GLIBC_2.2.5>
    143b:	0f 1f 44 00 00       	nopl   0x0(%rax,%rax,1)

0000000000001440 <__sprintf_chk@plt>:
    1440:	f3 0f 1e fa          	endbr64 
    1444:	f2 ff 25 7d 5b 00 00 	bnd jmpq *0x5b7d(%rip)        # 6fc8 <__sprintf_chk@GLIBC_2.3.4>
    144b:	0f 1f 44 00 00       	nopl   0x0(%rax,%rax,1)

0000000000001450 <socket@plt>:
    1450:	f3 0f 1e fa          	endbr64 
    1454:	f2 ff 25 75 5b 00 00 	bnd jmpq *0x5b75(%rip)        # 6fd0 <socket@GLIBC_2.2.5>
    145b:	0f 1f 44 00 00       	nopl   0x0(%rax,%rax,1)

Disassembly of section .text:

0000000000001460 <_start>:
    1460:	f3 0f 1e fa          	endbr64 
    1464:	31 ed                	xor    %ebp,%ebp
    1466:	49 89 d1             	mov    %rdx,%r9
    1469:	5e                   	pop    %rsi
    146a:	48 89 e2             	mov    %rsp,%rdx
    146d:	48 83 e4 f0          	and    $0xfffffffffffffff0,%rsp
    1471:	50                   	push   %rax
    1472:	54                   	push   %rsp
    1473:	4c 8d 05 b6 23 00 00 	lea    0x23b6(%rip),%r8        # 3830 <__libc_csu_fini>
    147a:	48 8d 0d 3f 23 00 00 	lea    0x233f(%rip),%rcx        # 37c0 <__libc_csu_init>
    1481:	48 8d 3d 04 03 00 00 	lea    0x304(%rip),%rdi        # 178c <main>
    1488:	ff 15 52 5b 00 00    	callq  *0x5b52(%rip)        # 6fe0 <__libc_start_main@GLIBC_2.2.5>
    148e:	f4                   	hlt    
    148f:	90                   	nop

0000000000001490 <deregister_tm_clones>:
    1490:	48 8d 3d d9 5e 00 00 	lea    0x5ed9(%rip),%rdi        # 7370 <__TMC_END__>
    1497:	48 8d 05 d2 5e 00 00 	lea    0x5ed2(%rip),%rax        # 7370 <__TMC_END__>
    149e:	48 39 f8             	cmp    %rdi,%rax
    14a1:	74 15                	je     14b8 <deregister_tm_clones+0x28>
    14a3:	48 8b 05 2e 5b 00 00 	mov    0x5b2e(%rip),%rax        # 6fd8 <_ITM_deregisterTMCloneTable>
    14aa:	48 85 c0             	test   %rax,%rax
    14ad:	74 09                	je     14b8 <deregister_tm_clones+0x28>
    14af:	ff e0                	jmpq   *%rax
    14b1:	0f 1f 80 00 00 00 00 	nopl   0x0(%rax)
    14b8:	c3                   	retq   
    14b9:	0f 1f 80 00 00 00 00 	nopl   0x0(%rax)

00000000000014c0 <register_tm_clones>:
    14c0:	48 8d 3d a9 5e 00 00 	lea    0x5ea9(%rip),%rdi        # 7370 <__TMC_END__>
    14c7:	48 8d 35 a2 5e 00 00 	lea    0x5ea2(%rip),%rsi        # 7370 <__TMC_END__>
    14ce:	48 29 fe             	sub    %rdi,%rsi
    14d1:	48 89 f0             	mov    %rsi,%rax
    14d4:	48 c1 ee 3f          	shr    $0x3f,%rsi
    14d8:	48 c1 f8 03          	sar    $0x3,%rax
    14dc:	48 01 c6             	add    %rax,%rsi
    14df:	48 d1 fe             	sar    %rsi
    14e2:	74 14                	je     14f8 <register_tm_clones+0x38>
    14e4:	48 8b 05 05 5b 00 00 	mov    0x5b05(%rip),%rax        # 6ff0 <_ITM_registerTMCloneTable>
    14eb:	48 85 c0             	test   %rax,%rax
    14ee:	74 08                	je     14f8 <register_tm_clones+0x38>
    14f0:	ff e0                	jmpq   *%rax
    14f2:	66 0f 1f 44 00 00    	nopw   0x0(%rax,%rax,1)
    14f8:	c3                   	retq   
    14f9:	0f 1f 80 00 00 00 00 	nopl   0x0(%rax)

0000000000001500 <__do_global_dtors_aux>:
    1500:	f3 0f 1e fa          	endbr64 
    1504:	80 3d 9d 5e 00 00 00 	cmpb   $0x0,0x5e9d(%rip)        # 73a8 <completed.8061>
    150b:	75 2b                	jne    1538 <__do_global_dtors_aux+0x38>
    150d:	55                   	push   %rbp
    150e:	48 83 3d e2 5a 00 00 	cmpq   $0x0,0x5ae2(%rip)        # 6ff8 <__cxa_finalize@GLIBC_2.2.5>
    1515:	00 
    1516:	48 89 e5             	mov    %rsp,%rbp
    1519:	74 0c                	je     1527 <__do_global_dtors_aux+0x27>
    151b:	48 8b 3d e6 5a 00 00 	mov    0x5ae6(%rip),%rdi        # 7008 <__dso_handle>
    1522:	e8 19 fd ff ff       	callq  1240 <__cxa_finalize@plt>
    1527:	e8 64 ff ff ff       	callq  1490 <deregister_tm_clones>
    152c:	c6 05 75 5e 00 00 01 	movb   $0x1,0x5e75(%rip)        # 73a8 <completed.8061>
    1533:	5d                   	pop    %rbp
    1534:	c3                   	retq   
    1535:	0f 1f 00             	nopl   (%rax)
    1538:	c3                   	retq   
    1539:	0f 1f 80 00 00 00 00 	nopl   0x0(%rax)

0000000000001540 <frame_dummy>:
    1540:	f3 0f 1e fa          	endbr64 
    1544:	e9 77 ff ff ff       	jmpq   14c0 <register_tm_clones>

0000000000001549 <usage>:
    1549:	50                   	push   %rax
    154a:	58                   	pop    %rax
    154b:	48 83 ec 08          	sub    $0x8,%rsp
    154f:	48 89 fa             	mov    %rdi,%rdx
    1552:	83 3d 8f 5e 00 00 00 	cmpl   $0x0,0x5e8f(%rip)        # 73e8 <is_checker>
    1559:	74 50                	je     15ab <usage+0x62>
    155b:	48 8d 35 a6 2a 00 00 	lea    0x2aa6(%rip),%rsi        # 4008 <_IO_stdin_used+0x8>
    1562:	bf 01 00 00 00       	mov    $0x1,%edi
    1567:	b8 00 00 00 00       	mov    $0x0,%eax
    156c:	e8 3f fe ff ff       	callq  13b0 <__printf_chk@plt>
    1571:	48 8d 3d c8 2a 00 00 	lea    0x2ac8(%rip),%rdi        # 4040 <_IO_stdin_used+0x40>
    1578:	e8 23 fd ff ff       	callq  12a0 <puts@plt>
    157d:	48 8d 3d 34 2c 00 00 	lea    0x2c34(%rip),%rdi        # 41b8 <_IO_stdin_used+0x1b8>
    1584:	e8 17 fd ff ff       	callq  12a0 <puts@plt>
    1589:	48 8d 3d d8 2a 00 00 	lea    0x2ad8(%rip),%rdi        # 4068 <_IO_stdin_used+0x68>
    1590:	e8 0b fd ff ff       	callq  12a0 <puts@plt>
    1595:	48 8d 3d 36 2c 00 00 	lea    0x2c36(%rip),%rdi        # 41d2 <_IO_stdin_used+0x1d2>
    159c:	e8 ff fc ff ff       	callq  12a0 <puts@plt>
    15a1:	bf 00 00 00 00       	mov    $0x0,%edi
    15a6:	e8 55 fe ff ff       	callq  1400 <exit@plt>
    15ab:	48 8d 35 3c 2c 00 00 	lea    0x2c3c(%rip),%rsi        # 41ee <_IO_stdin_used+0x1ee>
    15b2:	bf 01 00 00 00       	mov    $0x1,%edi
    15b7:	b8 00 00 00 00       	mov    $0x0,%eax
    15bc:	e8 ef fd ff ff       	callq  13b0 <__printf_chk@plt>
    15c1:	48 8d 3d c8 2a 00 00 	lea    0x2ac8(%rip),%rdi        # 4090 <_IO_stdin_used+0x90>
    15c8:	e8 d3 fc ff ff       	callq  12a0 <puts@plt>
    15cd:	48 8d 3d e4 2a 00 00 	lea    0x2ae4(%rip),%rdi        # 40b8 <_IO_stdin_used+0xb8>
    15d4:	e8 c7 fc ff ff       	callq  12a0 <puts@plt>
    15d9:	48 8d 3d 2c 2c 00 00 	lea    0x2c2c(%rip),%rdi        # 420c <_IO_stdin_used+0x20c>
    15e0:	e8 bb fc ff ff       	callq  12a0 <puts@plt>
    15e5:	eb ba                	jmp    15a1 <usage+0x58>

00000000000015e7 <initialize_target>:
    15e7:	55                   	push   %rbp
    15e8:	53                   	push   %rbx
    15e9:	48 81 ec 00 10 00 00 	sub    $0x1000,%rsp
    15f0:	48 83 0c 24 00       	orq    $0x0,(%rsp)
    15f5:	48 81 ec 00 10 00 00 	sub    $0x1000,%rsp
    15fc:	48 83 0c 24 00       	orq    $0x0,(%rsp)
    1601:	48 81 ec 18 01 00 00 	sub    $0x118,%rsp
    1608:	89 f5                	mov    %esi,%ebp
    160a:	64 48 8b 04 25 28 00 	mov    %fs:0x28,%rax
    1611:	00 00 
    1613:	48 89 84 24 08 21 00 	mov    %rax,0x2108(%rsp)
    161a:	00 
    161b:	31 c0                	xor    %eax,%eax
    161d:	89 3d b5 5d 00 00    	mov    %edi,0x5db5(%rip)        # 73d8 <check_level>
    1623:	8b 3d e7 59 00 00    	mov    0x59e7(%rip),%edi        # 7010 <target_id>
    1629:	e8 68 21 00 00       	callq  3796 <gencookie>
    162e:	89 c7                	mov    %eax,%edi
    1630:	89 05 ae 5d 00 00    	mov    %eax,0x5dae(%rip)        # 73e4 <cookie>
    1636:	e8 5b 21 00 00       	callq  3796 <gencookie>
    163b:	89 05 9f 5d 00 00    	mov    %eax,0x5d9f(%rip)        # 73e0 <authkey>
    1641:	8b 05 c9 59 00 00    	mov    0x59c9(%rip),%eax        # 7010 <target_id>
    1647:	8d 78 01             	lea    0x1(%rax),%edi
    164a:	e8 21 fc ff ff       	callq  1270 <srandom@plt>
    164f:	e8 2c fd ff ff       	callq  1380 <random@plt>
    1654:	48 89 c7             	mov    %rax,%rdi
    1657:	e8 20 03 00 00       	callq  197c <scramble>
    165c:	89 c3                	mov    %eax,%ebx
    165e:	85 ed                	test   %ebp,%ebp
    1660:	75 54                	jne    16b6 <initialize_target+0xcf>
    1662:	b8 00 00 00 00       	mov    $0x0,%eax
    1667:	01 d8                	add    %ebx,%eax
    1669:	0f b7 c0             	movzwl %ax,%eax
    166c:	8d 04 c5 00 01 00 00 	lea    0x100(,%rax,8),%eax
    1673:	89 c0                	mov    %eax,%eax
    1675:	48 89 05 e4 5c 00 00 	mov    %rax,0x5ce4(%rip)        # 7360 <buf_offset>
    167c:	c6 05 85 69 00 00 72 	movb   $0x72,0x6985(%rip)        # 8008 <target_prefix>
    1683:	83 3d de 5c 00 00 00 	cmpl   $0x0,0x5cde(%rip)        # 7368 <notify>
    168a:	74 09                	je     1695 <initialize_target+0xae>
    168c:	83 3d 55 5d 00 00 00 	cmpl   $0x0,0x5d55(%rip)        # 73e8 <is_checker>
    1693:	74 3a                	je     16cf <initialize_target+0xe8>
    1695:	48 8b 84 24 08 21 00 	mov    0x2108(%rsp),%rax
    169c:	00 
    169d:	64 48 33 04 25 28 00 	xor    %fs:0x28,%rax
    16a4:	00 00 
    16a6:	0f 85 db 00 00 00    	jne    1787 <initialize_target+0x1a0>
    16ac:	48 81 c4 18 21 00 00 	add    $0x2118,%rsp
    16b3:	5b                   	pop    %rbx
    16b4:	5d                   	pop    %rbp
    16b5:	c3                   	retq   
    16b6:	bf 00 00 00 00       	mov    $0x0,%edi
    16bb:	e8 b0 fc ff ff       	callq  1370 <time@plt>
    16c0:	48 89 c7             	mov    %rax,%rdi
    16c3:	e8 a8 fb ff ff       	callq  1270 <srandom@plt>
    16c8:	e8 b3 fc ff ff       	callq  1380 <random@plt>
    16cd:	eb 98                	jmp    1667 <initialize_target+0x80>
    16cf:	48 89 e7             	mov    %rsp,%rdi
    16d2:	be 00 01 00 00       	mov    $0x100,%esi
    16d7:	e8 14 fd ff ff       	callq  13f0 <gethostname@plt>
    16dc:	89 c5                	mov    %eax,%ebp
    16de:	85 c0                	test   %eax,%eax
    16e0:	75 26                	jne    1708 <initialize_target+0x121>
    16e2:	89 c3                	mov    %eax,%ebx
    16e4:	48 63 c3             	movslq %ebx,%rax
    16e7:	48 8d 15 52 59 00 00 	lea    0x5952(%rip),%rdx        # 7040 <host_table>
    16ee:	48 8b 3c c2          	mov    (%rdx,%rax,8),%rdi
    16f2:	48 85 ff             	test   %rdi,%rdi
    16f5:	74 2c                	je     1723 <initialize_target+0x13c>
    16f7:	48 89 e6             	mov    %rsp,%rsi
    16fa:	e8 51 fb ff ff       	callq  1250 <strcasecmp@plt>
    16ff:	85 c0                	test   %eax,%eax
    1701:	74 1b                	je     171e <initialize_target+0x137>
    1703:	83 c3 01             	add    $0x1,%ebx
    1706:	eb dc                	jmp    16e4 <initialize_target+0xfd>
    1708:	48 8d 3d d9 29 00 00 	lea    0x29d9(%rip),%rdi        # 40e8 <_IO_stdin_used+0xe8>
    170f:	e8 8c fb ff ff       	callq  12a0 <puts@plt>
    1714:	bf 08 00 00 00       	mov    $0x8,%edi
    1719:	e8 e2 fc ff ff       	callq  1400 <exit@plt>
    171e:	bd 01 00 00 00       	mov    $0x1,%ebp
    1723:	85 ed                	test   %ebp,%ebp
    1725:	74 3d                	je     1764 <initialize_target+0x17d>
    1727:	48 8d bc 24 00 01 00 	lea    0x100(%rsp),%rdi
    172e:	00 
    172f:	e8 a7 1d 00 00       	callq  34db <init_driver>
    1734:	85 c0                	test   %eax,%eax
    1736:	0f 89 59 ff ff ff    	jns    1695 <initialize_target+0xae>
    173c:	48 8d 94 24 00 01 00 	lea    0x100(%rsp),%rdx
    1743:	00 
    1744:	48 8d 35 15 2a 00 00 	lea    0x2a15(%rip),%rsi        # 4160 <_IO_stdin_used+0x160>
    174b:	bf 01 00 00 00       	mov    $0x1,%edi
    1750:	b8 00 00 00 00       	mov    $0x0,%eax
    1755:	e8 56 fc ff ff       	callq  13b0 <__printf_chk@plt>
    175a:	bf 08 00 00 00       	mov    $0x8,%edi
    175f:	e8 9c fc ff ff       	callq  1400 <exit@plt>
    1764:	48 89 e2             	mov    %rsp,%rdx
    1767:	48 8d 35 b2 29 00 00 	lea    0x29b2(%rip),%rsi        # 4120 <_IO_stdin_used+0x120>
    176e:	bf 01 00 00 00       	mov    $0x1,%edi
    1773:	b8 00 00 00 00       	mov    $0x0,%eax
    1778:	e8 33 fc ff ff       	callq  13b0 <__printf_chk@plt>
    177d:	bf 08 00 00 00       	mov    $0x8,%edi
    1782:	e8 79 fc ff ff       	callq  1400 <exit@plt>
    1787:	e8 34 fb ff ff       	callq  12c0 <__stack_chk_fail@plt>

000000000000178c <main>:
    178c:	f3 0f 1e fa          	endbr64 
    1790:	41 56                	push   %r14
    1792:	41 55                	push   %r13
    1794:	41 54                	push   %r12
    1796:	55                   	push   %rbp
    1797:	53                   	push   %rbx
    1798:	89 fd                	mov    %edi,%ebp
    179a:	48 89 f3             	mov    %rsi,%rbx
    179d:	48 8d 35 da 0f 00 00 	lea    0xfda(%rip),%rsi        # 277e <seghandler>
    17a4:	bf 0b 00 00 00       	mov    $0xb,%edi
    17a9:	e8 72 fb ff ff       	callq  1320 <signal@plt>
    17ae:	48 8d 35 6f 0f 00 00 	lea    0xf6f(%rip),%rsi        # 2724 <bushandler>
    17b5:	bf 07 00 00 00       	mov    $0x7,%edi
    17ba:	e8 61 fb ff ff       	callq  1320 <signal@plt>
    17bf:	48 8d 35 12 10 00 00 	lea    0x1012(%rip),%rsi        # 27d8 <illegalhandler>
    17c6:	bf 04 00 00 00       	mov    $0x4,%edi
    17cb:	e8 50 fb ff ff       	callq  1320 <signal@plt>
    17d0:	83 3d 11 5c 00 00 00 	cmpl   $0x0,0x5c11(%rip)        # 73e8 <is_checker>
    17d7:	75 26                	jne    17ff <main+0x73>
    17d9:	4c 8d 25 4d 2a 00 00 	lea    0x2a4d(%rip),%r12        # 422d <_IO_stdin_used+0x22d>
    17e0:	48 8b 05 99 5b 00 00 	mov    0x5b99(%rip),%rax        # 7380 <stdin@@GLIBC_2.2.5>
    17e7:	48 89 05 e2 5b 00 00 	mov    %rax,0x5be2(%rip)        # 73d0 <infile>
    17ee:	41 bd 00 00 00 00    	mov    $0x0,%r13d
    17f4:	41 be 00 00 00 00    	mov    $0x0,%r14d
    17fa:	e9 8d 00 00 00       	jmpq   188c <main+0x100>
    17ff:	48 8d 35 2c 10 00 00 	lea    0x102c(%rip),%rsi        # 2832 <sigalrmhandler>
    1806:	bf 0e 00 00 00       	mov    $0xe,%edi
    180b:	e8 10 fb ff ff       	callq  1320 <signal@plt>
    1810:	bf 05 00 00 00       	mov    $0x5,%edi
    1815:	e8 d6 fa ff ff       	callq  12f0 <alarm@plt>
    181a:	4c 8d 25 04 2a 00 00 	lea    0x2a04(%rip),%r12        # 4225 <_IO_stdin_used+0x225>
    1821:	eb bd                	jmp    17e0 <main+0x54>
    1823:	48 8b 3b             	mov    (%rbx),%rdi
    1826:	e8 1e fd ff ff       	callq  1549 <usage>
    182b:	48 8d 35 db 2c 00 00 	lea    0x2cdb(%rip),%rsi        # 450d <_IO_stdin_used+0x50d>
    1832:	48 8b 3d 4f 5b 00 00 	mov    0x5b4f(%rip),%rdi        # 7388 <optarg@@GLIBC_2.2.5>
    1839:	e8 82 fb ff ff       	callq  13c0 <fopen@plt>
    183e:	48 89 05 8b 5b 00 00 	mov    %rax,0x5b8b(%rip)        # 73d0 <infile>
    1845:	48 85 c0             	test   %rax,%rax
    1848:	75 42                	jne    188c <main+0x100>
    184a:	48 8b 0d 37 5b 00 00 	mov    0x5b37(%rip),%rcx        # 7388 <optarg@@GLIBC_2.2.5>
    1851:	48 8d 15 da 29 00 00 	lea    0x29da(%rip),%rdx        # 4232 <_IO_stdin_used+0x232>
    1858:	be 01 00 00 00       	mov    $0x1,%esi
    185d:	48 8b 3d 3c 5b 00 00 	mov    0x5b3c(%rip),%rdi        # 73a0 <stderr@@GLIBC_2.2.5>
    1864:	e8 b7 fb ff ff       	callq  1420 <__fprintf_chk@plt>
    1869:	b8 01 00 00 00       	mov    $0x1,%eax
    186e:	e9 db 00 00 00       	jmpq   194e <main+0x1c2>
    1873:	ba 10 00 00 00       	mov    $0x10,%edx
    1878:	be 00 00 00 00       	mov    $0x0,%esi
    187d:	48 8b 3d 04 5b 00 00 	mov    0x5b04(%rip),%rdi        # 7388 <optarg@@GLIBC_2.2.5>
    1884:	e8 57 fb ff ff       	callq  13e0 <strtoul@plt>
    1889:	41 89 c6             	mov    %eax,%r14d
    188c:	4c 89 e2             	mov    %r12,%rdx
    188f:	48 89 de             	mov    %rbx,%rsi
    1892:	89 ef                	mov    %ebp,%edi
    1894:	e8 37 fb ff ff       	callq  13d0 <getopt@plt>
    1899:	3c ff                	cmp    $0xff,%al
    189b:	74 65                	je     1902 <main+0x176>
    189d:	0f be c8             	movsbl %al,%ecx
    18a0:	83 e8 61             	sub    $0x61,%eax
    18a3:	3c 10                	cmp    $0x10,%al
    18a5:	77 3b                	ja     18e2 <main+0x156>
    18a7:	0f b6 c0             	movzbl %al,%eax
    18aa:	48 8d 15 bf 29 00 00 	lea    0x29bf(%rip),%rdx        # 4270 <_IO_stdin_used+0x270>
    18b1:	48 63 04 82          	movslq (%rdx,%rax,4),%rax
    18b5:	48 01 d0             	add    %rdx,%rax
    18b8:	3e ff e0             	notrack jmpq *%rax
    18bb:	ba 0a 00 00 00       	mov    $0xa,%edx
    18c0:	be 00 00 00 00       	mov    $0x0,%esi
    18c5:	48 8b 3d bc 5a 00 00 	mov    0x5abc(%rip),%rdi        # 7388 <optarg@@GLIBC_2.2.5>
    18cc:	e8 7f fa ff ff       	callq  1350 <strtol@plt>
    18d1:	41 89 c5             	mov    %eax,%r13d
    18d4:	eb b6                	jmp    188c <main+0x100>
    18d6:	c7 05 88 5a 00 00 00 	movl   $0x0,0x5a88(%rip)        # 7368 <notify>
    18dd:	00 00 00 
    18e0:	eb aa                	jmp    188c <main+0x100>
    18e2:	89 ca                	mov    %ecx,%edx
    18e4:	48 8d 35 64 29 00 00 	lea    0x2964(%rip),%rsi        # 424f <_IO_stdin_used+0x24f>
    18eb:	bf 01 00 00 00       	mov    $0x1,%edi
    18f0:	b8 00 00 00 00       	mov    $0x0,%eax
    18f5:	e8 b6 fa ff ff       	callq  13b0 <__printf_chk@plt>
    18fa:	48 8b 3b             	mov    (%rbx),%rdi
    18fd:	e8 47 fc ff ff       	callq  1549 <usage>
    1902:	be 01 00 00 00       	mov    $0x1,%esi
    1907:	44 89 ef             	mov    %r13d,%edi
    190a:	e8 d8 fc ff ff       	callq  15e7 <initialize_target>
    190f:	83 3d d2 5a 00 00 00 	cmpl   $0x0,0x5ad2(%rip)        # 73e8 <is_checker>
    1916:	74 09                	je     1921 <main+0x195>
    1918:	44 39 35 c1 5a 00 00 	cmp    %r14d,0x5ac1(%rip)        # 73e0 <authkey>
    191f:	75 36                	jne    1957 <main+0x1cb>
    1921:	8b 15 bd 5a 00 00    	mov    0x5abd(%rip),%edx        # 73e4 <cookie>
    1927:	48 8d 35 34 29 00 00 	lea    0x2934(%rip),%rsi        # 4262 <_IO_stdin_used+0x262>
    192e:	bf 01 00 00 00       	mov    $0x1,%edi
    1933:	b8 00 00 00 00       	mov    $0x0,%eax
    1938:	e8 73 fa ff ff       	callq  13b0 <__printf_chk@plt>
    193d:	48 8b 3d 1c 5a 00 00 	mov    0x5a1c(%rip),%rdi        # 7360 <buf_offset>
    1944:	e8 46 0f 00 00       	callq  288f <launch>
    1949:	b8 00 00 00 00       	mov    $0x0,%eax
    194e:	5b                   	pop    %rbx
    194f:	5d                   	pop    %rbp
    1950:	41 5c                	pop    %r12
    1952:	41 5d                	pop    %r13
    1954:	41 5e                	pop    %r14
    1956:	c3                   	retq   
    1957:	44 89 f2             	mov    %r14d,%edx
    195a:	48 8d 35 27 28 00 00 	lea    0x2827(%rip),%rsi        # 4188 <_IO_stdin_used+0x188>
    1961:	bf 01 00 00 00       	mov    $0x1,%edi
    1966:	b8 00 00 00 00       	mov    $0x0,%eax
    196b:	e8 40 fa ff ff       	callq  13b0 <__printf_chk@plt>
    1970:	b8 00 00 00 00       	mov    $0x0,%eax
    1975:	e8 f9 09 00 00       	callq  2373 <check_fail>
    197a:	eb a5                	jmp    1921 <main+0x195>

000000000000197c <scramble>:
    197c:	f3 0f 1e fa          	endbr64 
    1980:	48 83 ec 38          	sub    $0x38,%rsp
    1984:	64 48 8b 04 25 28 00 	mov    %fs:0x28,%rax
    198b:	00 00 
    198d:	48 89 44 24 28       	mov    %rax,0x28(%rsp)
    1992:	31 c0                	xor    %eax,%eax
    1994:	83 f8 09             	cmp    $0x9,%eax
    1997:	77 12                	ja     19ab <scramble+0x2f>
    1999:	69 d0 4a e1 00 00    	imul   $0xe14a,%eax,%edx
    199f:	01 fa                	add    %edi,%edx
    19a1:	89 c1                	mov    %eax,%ecx
    19a3:	89 14 8c             	mov    %edx,(%rsp,%rcx,4)
    19a6:	83 c0 01             	add    $0x1,%eax
    19a9:	eb e9                	jmp    1994 <scramble+0x18>
    19ab:	8b 44 24 0c          	mov    0xc(%rsp),%eax
    19af:	69 c0 e7 be 00 00    	imul   $0xbee7,%eax,%eax
    19b5:	89 44 24 0c          	mov    %eax,0xc(%rsp)
    19b9:	8b 44 24 1c          	mov    0x1c(%rsp),%eax
    19bd:	69 c0 95 4f 00 00    	imul   $0x4f95,%eax,%eax
    19c3:	89 44 24 1c          	mov    %eax,0x1c(%rsp)
    19c7:	8b 04 24             	mov    (%rsp),%eax
    19ca:	69 c0 57 36 00 00    	imul   $0x3657,%eax,%eax
    19d0:	89 04 24             	mov    %eax,(%rsp)
    19d3:	8b 44 24 14          	mov    0x14(%rsp),%eax
    19d7:	69 c0 f4 dc 00 00    	imul   $0xdcf4,%eax,%eax
    19dd:	89 44 24 14          	mov    %eax,0x14(%rsp)
    19e1:	8b 44 24 0c          	mov    0xc(%rsp),%eax
    19e5:	69 c0 c3 26 00 00    	imul   $0x26c3,%eax,%eax
    19eb:	89 44 24 0c          	mov    %eax,0xc(%rsp)
    19ef:	8b 44 24 10          	mov    0x10(%rsp),%eax
    19f3:	69 c0 1d 56 00 00    	imul   $0x561d,%eax,%eax
    19f9:	89 44 24 10          	mov    %eax,0x10(%rsp)
    19fd:	8b 44 24 20          	mov    0x20(%rsp),%eax
    1a01:	69 c0 f8 db 00 00    	imul   $0xdbf8,%eax,%eax
    1a07:	89 44 24 20          	mov    %eax,0x20(%rsp)
    1a0b:	8b 44 24 20          	mov    0x20(%rsp),%eax
    1a0f:	69 c0 48 ea 00 00    	imul   $0xea48,%eax,%eax
    1a15:	89 44 24 20          	mov    %eax,0x20(%rsp)
    1a19:	8b 44 24 14          	mov    0x14(%rsp),%eax
    1a1d:	69 c0 ed db 00 00    	imul   $0xdbed,%eax,%eax
    1a23:	89 44 24 14          	mov    %eax,0x14(%rsp)
    1a27:	8b 44 24 18          	mov    0x18(%rsp),%eax
    1a2b:	69 c0 a7 be 00 00    	imul   $0xbea7,%eax,%eax
    1a31:	89 44 24 18          	mov    %eax,0x18(%rsp)
    1a35:	8b 44 24 14          	mov    0x14(%rsp),%eax
    1a39:	69 c0 b2 e9 00 00    	imul   $0xe9b2,%eax,%eax
    1a3f:	89 44 24 14          	mov    %eax,0x14(%rsp)
    1a43:	8b 44 24 24          	mov    0x24(%rsp),%eax
    1a47:	69 c0 a5 e9 00 00    	imul   $0xe9a5,%eax,%eax
    1a4d:	89 44 24 24          	mov    %eax,0x24(%rsp)
    1a51:	8b 44 24 14          	mov    0x14(%rsp),%eax
    1a55:	69 c0 4a fe 00 00    	imul   $0xfe4a,%eax,%eax
    1a5b:	89 44 24 14          	mov    %eax,0x14(%rsp)
    1a5f:	8b 44 24 10          	mov    0x10(%rsp),%eax
    1a63:	69 c0 af 70 00 00    	imul   $0x70af,%eax,%eax
    1a69:	89 44 24 10          	mov    %eax,0x10(%rsp)
    1a6d:	8b 44 24 0c          	mov    0xc(%rsp),%eax
    1a71:	69 c0 cf 23 00 00    	imul   $0x23cf,%eax,%eax
    1a77:	89 44 24 0c          	mov    %eax,0xc(%rsp)
    1a7b:	8b 44 24 08          	mov    0x8(%rsp),%eax
    1a7f:	69 c0 1a 7c 00 00    	imul   $0x7c1a,%eax,%eax
    1a85:	89 44 24 08          	mov    %eax,0x8(%rsp)
    1a89:	8b 44 24 1c          	mov    0x1c(%rsp),%eax
    1a8d:	69 c0 de 97 00 00    	imul   $0x97de,%eax,%eax
    1a93:	89 44 24 1c          	mov    %eax,0x1c(%rsp)
    1a97:	8b 44 24 04          	mov    0x4(%rsp),%eax
    1a9b:	69 c0 eb 2b 00 00    	imul   $0x2beb,%eax,%eax
    1aa1:	89 44 24 04          	mov    %eax,0x4(%rsp)
    1aa5:	8b 04 24             	mov    (%rsp),%eax
    1aa8:	69 c0 b9 0d 00 00    	imul   $0xdb9,%eax,%eax
    1aae:	89 04 24             	mov    %eax,(%rsp)
    1ab1:	8b 44 24 14          	mov    0x14(%rsp),%eax
    1ab5:	69 c0 5c 5d 00 00    	imul   $0x5d5c,%eax,%eax
    1abb:	89 44 24 14          	mov    %eax,0x14(%rsp)
    1abf:	8b 44 24 18          	mov    0x18(%rsp),%eax
    1ac3:	69 c0 df 9b 00 00    	imul   $0x9bdf,%eax,%eax
    1ac9:	89 44 24 18          	mov    %eax,0x18(%rsp)
    1acd:	8b 44 24 08          	mov    0x8(%rsp),%eax
    1ad1:	69 c0 5f c0 00 00    	imul   $0xc05f,%eax,%eax
    1ad7:	89 44 24 08          	mov    %eax,0x8(%rsp)
    1adb:	8b 44 24 10          	mov    0x10(%rsp),%eax
    1adf:	69 c0 b4 18 00 00    	imul   $0x18b4,%eax,%eax
    1ae5:	89 44 24 10          	mov    %eax,0x10(%rsp)
    1ae9:	8b 04 24             	mov    (%rsp),%eax
    1aec:	69 c0 fc 08 00 00    	imul   $0x8fc,%eax,%eax
    1af2:	89 04 24             	mov    %eax,(%rsp)
    1af5:	8b 44 24 14          	mov    0x14(%rsp),%eax
    1af9:	69 c0 bd f5 00 00    	imul   $0xf5bd,%eax,%eax
    1aff:	89 44 24 14          	mov    %eax,0x14(%rsp)
    1b03:	8b 44 24 14          	mov    0x14(%rsp),%eax
    1b07:	69 c0 e8 e8 00 00    	imul   $0xe8e8,%eax,%eax
    1b0d:	89 44 24 14          	mov    %eax,0x14(%rsp)
    1b11:	8b 44 24 04          	mov    0x4(%rsp),%eax
    1b15:	69 c0 f1 2a 00 00    	imul   $0x2af1,%eax,%eax
    1b1b:	89 44 24 04          	mov    %eax,0x4(%rsp)
    1b1f:	8b 44 24 04          	mov    0x4(%rsp),%eax
    1b23:	69 c0 78 ee 00 00    	imul   $0xee78,%eax,%eax
    1b29:	89 44 24 04          	mov    %eax,0x4(%rsp)
    1b2d:	8b 44 24 04          	mov    0x4(%rsp),%eax
    1b31:	69 c0 ca 8b 00 00    	imul   $0x8bca,%eax,%eax
    1b37:	89 44 24 04          	mov    %eax,0x4(%rsp)
    1b3b:	8b 44 24 1c          	mov    0x1c(%rsp),%eax
    1b3f:	69 c0 0b c4 00 00    	imul   $0xc40b,%eax,%eax
    1b45:	89 44 24 1c          	mov    %eax,0x1c(%rsp)
    1b49:	8b 44 24 24          	mov    0x24(%rsp),%eax
    1b4d:	69 c0 34 77 00 00    	imul   $0x7734,%eax,%eax
    1b53:	89 44 24 24          	mov    %eax,0x24(%rsp)
    1b57:	8b 44 24 10          	mov    0x10(%rsp),%eax
    1b5b:	69 c0 4f 92 00 00    	imul   $0x924f,%eax,%eax
    1b61:	89 44 24 10          	mov    %eax,0x10(%rsp)
    1b65:	8b 44 24 04          	mov    0x4(%rsp),%eax
    1b69:	69 c0 d4 0b 00 00    	imul   $0xbd4,%eax,%eax
    1b6f:	89 44 24 04          	mov    %eax,0x4(%rsp)
    1b73:	8b 44 24 20          	mov    0x20(%rsp),%eax
    1b77:	69 c0 48 dd 00 00    	imul   $0xdd48,%eax,%eax
    1b7d:	89 44 24 20          	mov    %eax,0x20(%rsp)
    1b81:	8b 44 24 08          	mov    0x8(%rsp),%eax
    1b85:	69 c0 1b c7 00 00    	imul   $0xc71b,%eax,%eax
    1b8b:	89 44 24 08          	mov    %eax,0x8(%rsp)
    1b8f:	8b 44 24 20          	mov    0x20(%rsp),%eax
    1b93:	69 c0 0b 4e 00 00    	imul   $0x4e0b,%eax,%eax
    1b99:	89 44 24 20          	mov    %eax,0x20(%rsp)
    1b9d:	8b 44 24 10          	mov    0x10(%rsp),%eax
    1ba1:	69 c0 1e ee 00 00    	imul   $0xee1e,%eax,%eax
    1ba7:	89 44 24 10          	mov    %eax,0x10(%rsp)
    1bab:	8b 44 24 1c          	mov    0x1c(%rsp),%eax
    1baf:	69 c0 d2 da 00 00    	imul   $0xdad2,%eax,%eax
    1bb5:	89 44 24 1c          	mov    %eax,0x1c(%rsp)
    1bb9:	8b 44 24 08          	mov    0x8(%rsp),%eax
    1bbd:	69 c0 12 b9 00 00    	imul   $0xb912,%eax,%eax
    1bc3:	89 44 24 08          	mov    %eax,0x8(%rsp)
    1bc7:	8b 44 24 10          	mov    0x10(%rsp),%eax
    1bcb:	69 c0 75 fb 00 00    	imul   $0xfb75,%eax,%eax
    1bd1:	89 44 24 10          	mov    %eax,0x10(%rsp)
    1bd5:	8b 44 24 0c          	mov    0xc(%rsp),%eax
    1bd9:	69 c0 72 ab 00 00    	imul   $0xab72,%eax,%eax
    1bdf:	89 44 24 0c          	mov    %eax,0xc(%rsp)
    1be3:	8b 44 24 04          	mov    0x4(%rsp),%eax
    1be7:	69 c0 3f 8e 00 00    	imul   $0x8e3f,%eax,%eax
    1bed:	89 44 24 04          	mov    %eax,0x4(%rsp)
    1bf1:	8b 44 24 18          	mov    0x18(%rsp),%eax
    1bf5:	69 c0 ea b6 00 00    	imul   $0xb6ea,%eax,%eax
    1bfb:	89 44 24 18          	mov    %eax,0x18(%rsp)
    1bff:	8b 44 24 10          	mov    0x10(%rsp),%eax
    1c03:	69 c0 9e ff 00 00    	imul   $0xff9e,%eax,%eax
    1c09:	89 44 24 10          	mov    %eax,0x10(%rsp)
    1c0d:	8b 04 24             	mov    (%rsp),%eax
    1c10:	69 c0 df db 00 00    	imul   $0xdbdf,%eax,%eax
    1c16:	89 04 24             	mov    %eax,(%rsp)
    1c19:	8b 44 24 18          	mov    0x18(%rsp),%eax
    1c1d:	69 c0 4e f2 00 00    	imul   $0xf24e,%eax,%eax
    1c23:	89 44 24 18          	mov    %eax,0x18(%rsp)
    1c27:	8b 44 24 0c          	mov    0xc(%rsp),%eax
    1c2b:	69 c0 cf 03 00 00    	imul   $0x3cf,%eax,%eax
    1c31:	89 44 24 0c          	mov    %eax,0xc(%rsp)
    1c35:	8b 04 24             	mov    (%rsp),%eax
    1c38:	69 c0 26 62 00 00    	imul   $0x6226,%eax,%eax
    1c3e:	89 04 24             	mov    %eax,(%rsp)
    1c41:	8b 44 24 18          	mov    0x18(%rsp),%eax
    1c45:	69 c0 d8 42 00 00    	imul   $0x42d8,%eax,%eax
    1c4b:	89 44 24 18          	mov    %eax,0x18(%rsp)
    1c4f:	8b 44 24 24          	mov    0x24(%rsp),%eax
    1c53:	69 c0 32 29 00 00    	imul   $0x2932,%eax,%eax
    1c59:	89 44 24 24          	mov    %eax,0x24(%rsp)
    1c5d:	8b 44 24 0c          	mov    0xc(%rsp),%eax
    1c61:	69 c0 13 7a 00 00    	imul   $0x7a13,%eax,%eax
    1c67:	89 44 24 0c          	mov    %eax,0xc(%rsp)
    1c6b:	8b 44 24 04          	mov    0x4(%rsp),%eax
    1c6f:	69 c0 ee 6c 00 00    	imul   $0x6cee,%eax,%eax
    1c75:	89 44 24 04          	mov    %eax,0x4(%rsp)
    1c79:	8b 04 24             	mov    (%rsp),%eax
    1c7c:	69 c0 a7 85 00 00    	imul   $0x85a7,%eax,%eax
    1c82:	89 04 24             	mov    %eax,(%rsp)
    1c85:	8b 04 24             	mov    (%rsp),%eax
    1c88:	69 c0 04 6f 00 00    	imul   $0x6f04,%eax,%eax
    1c8e:	89 04 24             	mov    %eax,(%rsp)
    1c91:	8b 44 24 1c          	mov    0x1c(%rsp),%eax
    1c95:	69 c0 8f 2b 00 00    	imul   $0x2b8f,%eax,%eax
    1c9b:	89 44 24 1c          	mov    %eax,0x1c(%rsp)
    1c9f:	8b 44 24 0c          	mov    0xc(%rsp),%eax
    1ca3:	69 c0 8a ed 00 00    	imul   $0xed8a,%eax,%eax
    1ca9:	89 44 24 0c          	mov    %eax,0xc(%rsp)
    1cad:	8b 44 24 0c          	mov    0xc(%rsp),%eax
    1cb1:	69 c0 d6 4e 00 00    	imul   $0x4ed6,%eax,%eax
    1cb7:	89 44 24 0c          	mov    %eax,0xc(%rsp)
    1cbb:	8b 44 24 20          	mov    0x20(%rsp),%eax
    1cbf:	69 c0 64 ad 00 00    	imul   $0xad64,%eax,%eax
    1cc5:	89 44 24 20          	mov    %eax,0x20(%rsp)
    1cc9:	8b 44 24 20          	mov    0x20(%rsp),%eax
    1ccd:	69 c0 81 f8 00 00    	imul   $0xf881,%eax,%eax
    1cd3:	89 44 24 20          	mov    %eax,0x20(%rsp)
    1cd7:	8b 44 24 0c          	mov    0xc(%rsp),%eax
    1cdb:	69 c0 75 48 00 00    	imul   $0x4875,%eax,%eax
    1ce1:	89 44 24 0c          	mov    %eax,0xc(%rsp)
    1ce5:	8b 44 24 1c          	mov    0x1c(%rsp),%eax
    1ce9:	69 c0 ac 70 00 00    	imul   $0x70ac,%eax,%eax
    1cef:	89 44 24 1c          	mov    %eax,0x1c(%rsp)
    1cf3:	8b 04 24             	mov    (%rsp),%eax
    1cf6:	69 c0 75 27 00 00    	imul   $0x2775,%eax,%eax
    1cfc:	89 04 24             	mov    %eax,(%rsp)
    1cff:	8b 44 24 24          	mov    0x24(%rsp),%eax
    1d03:	69 c0 60 bf 00 00    	imul   $0xbf60,%eax,%eax
    1d09:	89 44 24 24          	mov    %eax,0x24(%rsp)
    1d0d:	8b 44 24 24          	mov    0x24(%rsp),%eax
    1d11:	69 c0 20 84 00 00    	imul   $0x8420,%eax,%eax
    1d17:	89 44 24 24          	mov    %eax,0x24(%rsp)
    1d1b:	8b 04 24             	mov    (%rsp),%eax
    1d1e:	69 c0 0a c9 00 00    	imul   $0xc90a,%eax,%eax
    1d24:	89 04 24             	mov    %eax,(%rsp)
    1d27:	8b 44 24 24          	mov    0x24(%rsp),%eax
    1d2b:	69 c0 2c 0c 00 00    	imul   $0xc2c,%eax,%eax
    1d31:	89 44 24 24          	mov    %eax,0x24(%rsp)
    1d35:	8b 44 24 20          	mov    0x20(%rsp),%eax
    1d39:	69 c0 8f 24 00 00    	imul   $0x248f,%eax,%eax
    1d3f:	89 44 24 20          	mov    %eax,0x20(%rsp)
    1d43:	8b 44 24 08          	mov    0x8(%rsp),%eax
    1d47:	69 c0 4e ab 00 00    	imul   $0xab4e,%eax,%eax
    1d4d:	89 44 24 08          	mov    %eax,0x8(%rsp)
    1d51:	8b 44 24 0c          	mov    0xc(%rsp),%eax
    1d55:	69 c0 db c0 00 00    	imul   $0xc0db,%eax,%eax
    1d5b:	89 44 24 0c          	mov    %eax,0xc(%rsp)
    1d5f:	8b 44 24 18          	mov    0x18(%rsp),%eax
    1d63:	69 c0 f0 e8 00 00    	imul   $0xe8f0,%eax,%eax
    1d69:	89 44 24 18          	mov    %eax,0x18(%rsp)
    1d6d:	8b 44 24 18          	mov    0x18(%rsp),%eax
    1d71:	69 c0 cc 84 00 00    	imul   $0x84cc,%eax,%eax
    1d77:	89 44 24 18          	mov    %eax,0x18(%rsp)
    1d7b:	8b 44 24 14          	mov    0x14(%rsp),%eax
    1d7f:	69 c0 6b c3 00 00    	imul   $0xc36b,%eax,%eax
    1d85:	89 44 24 14          	mov    %eax,0x14(%rsp)
    1d89:	8b 44 24 1c          	mov    0x1c(%rsp),%eax
    1d8d:	69 c0 44 52 00 00    	imul   $0x5244,%eax,%eax
    1d93:	89 44 24 1c          	mov    %eax,0x1c(%rsp)
    1d97:	8b 44 24 14          	mov    0x14(%rsp),%eax
    1d9b:	69 c0 63 d9 00 00    	imul   $0xd963,%eax,%eax
    1da1:	89 44 24 14          	mov    %eax,0x14(%rsp)
    1da5:	8b 44 24 20          	mov    0x20(%rsp),%eax
    1da9:	69 c0 d1 1d 00 00    	imul   $0x1dd1,%eax,%eax
    1daf:	89 44 24 20          	mov    %eax,0x20(%rsp)
    1db3:	8b 44 24 18          	mov    0x18(%rsp),%eax
    1db7:	69 c0 26 1f 00 00    	imul   $0x1f26,%eax,%eax
    1dbd:	89 44 24 18          	mov    %eax,0x18(%rsp)
    1dc1:	8b 44 24 1c          	mov    0x1c(%rsp),%eax
    1dc5:	69 c0 9b 5c 00 00    	imul   $0x5c9b,%eax,%eax
    1dcb:	89 44 24 1c          	mov    %eax,0x1c(%rsp)
    1dcf:	8b 44 24 20          	mov    0x20(%rsp),%eax
    1dd3:	69 c0 fa 02 00 00    	imul   $0x2fa,%eax,%eax
    1dd9:	89 44 24 20          	mov    %eax,0x20(%rsp)
    1ddd:	8b 44 24 20          	mov    0x20(%rsp),%eax
    1de1:	69 c0 37 d0 00 00    	imul   $0xd037,%eax,%eax
    1de7:	89 44 24 20          	mov    %eax,0x20(%rsp)
    1deb:	8b 44 24 1c          	mov    0x1c(%rsp),%eax
    1def:	69 c0 35 1e 00 00    	imul   $0x1e35,%eax,%eax
    1df5:	89 44 24 1c          	mov    %eax,0x1c(%rsp)
    1df9:	8b 44 24 1c          	mov    0x1c(%rsp),%eax
    1dfd:	69 c0 6c 34 00 00    	imul   $0x346c,%eax,%eax
    1e03:	89 44 24 1c          	mov    %eax,0x1c(%rsp)
    1e07:	8b 44 24 0c          	mov    0xc(%rsp),%eax
    1e0b:	69 c0 5e dc 00 00    	imul   $0xdc5e,%eax,%eax
    1e11:	89 44 24 0c          	mov    %eax,0xc(%rsp)
    1e15:	8b 44 24 08          	mov    0x8(%rsp),%eax
    1e19:	69 c0 7c a3 00 00    	imul   $0xa37c,%eax,%eax
    1e1f:	89 44 24 08          	mov    %eax,0x8(%rsp)
    1e23:	8b 44 24 24          	mov    0x24(%rsp),%eax
    1e27:	69 c0 31 03 00 00    	imul   $0x331,%eax,%eax
    1e2d:	89 44 24 24          	mov    %eax,0x24(%rsp)
    1e31:	8b 04 24             	mov    (%rsp),%eax
    1e34:	69 c0 ff a1 00 00    	imul   $0xa1ff,%eax,%eax
    1e3a:	89 04 24             	mov    %eax,(%rsp)
    1e3d:	8b 44 24 20          	mov    0x20(%rsp),%eax
    1e41:	69 c0 c1 50 00 00    	imul   $0x50c1,%eax,%eax
    1e47:	89 44 24 20          	mov    %eax,0x20(%rsp)
    1e4b:	8b 04 24             	mov    (%rsp),%eax
    1e4e:	69 c0 9c c2 00 00    	imul   $0xc29c,%eax,%eax
    1e54:	89 04 24             	mov    %eax,(%rsp)
    1e57:	8b 04 24             	mov    (%rsp),%eax
    1e5a:	69 c0 6f fa 00 00    	imul   $0xfa6f,%eax,%eax
    1e60:	89 04 24             	mov    %eax,(%rsp)
    1e63:	8b 44 24 20          	mov    0x20(%rsp),%eax
    1e67:	69 c0 fb 84 00 00    	imul   $0x84fb,%eax,%eax
    1e6d:	89 44 24 20          	mov    %eax,0x20(%rsp)
    1e71:	8b 44 24 08          	mov    0x8(%rsp),%eax
    1e75:	69 c0 a6 5f 00 00    	imul   $0x5fa6,%eax,%eax
    1e7b:	89 44 24 08          	mov    %eax,0x8(%rsp)
    1e7f:	8b 44 24 10          	mov    0x10(%rsp),%eax
    1e83:	69 c0 ab f5 00 00    	imul   $0xf5ab,%eax,%eax
    1e89:	89 44 24 10          	mov    %eax,0x10(%rsp)
    1e8d:	8b 44 24 08          	mov    0x8(%rsp),%eax
    1e91:	69 c0 4a 31 00 00    	imul   $0x314a,%eax,%eax
    1e97:	89 44 24 08          	mov    %eax,0x8(%rsp)
    1e9b:	8b 44 24 18          	mov    0x18(%rsp),%eax
    1e9f:	69 c0 68 c5 00 00    	imul   $0xc568,%eax,%eax
    1ea5:	89 44 24 18          	mov    %eax,0x18(%rsp)
    1ea9:	8b 44 24 0c          	mov    0xc(%rsp),%eax
    1ead:	69 c0 42 6e 00 00    	imul   $0x6e42,%eax,%eax
    1eb3:	89 44 24 0c          	mov    %eax,0xc(%rsp)
    1eb7:	8b 44 24 24          	mov    0x24(%rsp),%eax
    1ebb:	69 c0 5e bb 00 00    	imul   $0xbb5e,%eax,%eax
    1ec1:	89 44 24 24          	mov    %eax,0x24(%rsp)
    1ec5:	8b 44 24 18          	mov    0x18(%rsp),%eax
    1ec9:	69 c0 e0 2e 00 00    	imul   $0x2ee0,%eax,%eax
    1ecf:	89 44 24 18          	mov    %eax,0x18(%rsp)
    1ed3:	8b 44 24 08          	mov    0x8(%rsp),%eax
    1ed7:	69 c0 d9 b6 00 00    	imul   $0xb6d9,%eax,%eax
    1edd:	89 44 24 08          	mov    %eax,0x8(%rsp)
    1ee1:	b8 00 00 00 00       	mov    $0x0,%eax
    1ee6:	ba 00 00 00 00       	mov    $0x0,%edx
    1eeb:	83 f8 09             	cmp    $0x9,%eax
    1eee:	77 0c                	ja     1efc <scramble+0x580>
    1ef0:	89 c1                	mov    %eax,%ecx
    1ef2:	8b 0c 8c             	mov    (%rsp,%rcx,4),%ecx
    1ef5:	01 ca                	add    %ecx,%edx
    1ef7:	83 c0 01             	add    $0x1,%eax
    1efa:	eb ef                	jmp    1eeb <scramble+0x56f>
    1efc:	48 8b 44 24 28       	mov    0x28(%rsp),%rax
    1f01:	64 48 33 04 25 28 00 	xor    %fs:0x28,%rax
    1f08:	00 00 
    1f0a:	75 07                	jne    1f13 <scramble+0x597>
    1f0c:	89 d0                	mov    %edx,%eax
    1f0e:	48 83 c4 38          	add    $0x38,%rsp
    1f12:	c3                   	retq   
    1f13:	e8 a8 f3 ff ff       	callq  12c0 <__stack_chk_fail@plt>

0000000000001f18 <getbuf>:
    1f18:	f3 0f 1e fa          	endbr64 
    1f1c:	48 83 ec 28          	sub    $0x28,%rsp
    1f20:	48 89 e7             	mov    %rsp,%rdi
    1f23:	e8 89 04 00 00       	callq  23b1 <Gets>
    1f28:	b8 01 00 00 00       	mov    $0x1,%eax
    1f2d:	48 83 c4 28          	add    $0x28,%rsp
    1f31:	c3                   	retq   

0000000000001f32 <touch1>:
    1f32:	f3 0f 1e fa          	endbr64 
    1f36:	50                   	push   %rax
    1f37:	58                   	pop    %rax
    1f38:	48 83 ec 08          	sub    $0x8,%rsp
    1f3c:	c7 05 96 54 00 00 01 	movl   $0x1,0x5496(%rip)        # 73dc <vlevel>
    1f43:	00 00 00 
    1f46:	48 8d 3d 15 24 00 00 	lea    0x2415(%rip),%rdi        # 4362 <_IO_stdin_used+0x362>
    1f4d:	e8 4e f3 ff ff       	callq  12a0 <puts@plt>
    1f52:	bf 01 00 00 00       	mov    $0x1,%edi
    1f57:	e8 c8 06 00 00       	callq  2624 <validate>
    1f5c:	bf 00 00 00 00       	mov    $0x0,%edi
    1f61:	e8 9a f4 ff ff       	callq  1400 <exit@plt>

0000000000001f66 <touch2>:
    1f66:	f3 0f 1e fa          	endbr64 
    1f6a:	50                   	push   %rax
    1f6b:	58                   	pop    %rax
    1f6c:	48 83 ec 08          	sub    $0x8,%rsp
    1f70:	89 fa                	mov    %edi,%edx
    1f72:	c7 05 60 54 00 00 02 	movl   $0x2,0x5460(%rip)        # 73dc <vlevel>
    1f79:	00 00 00 
    1f7c:	39 3d 62 54 00 00    	cmp    %edi,0x5462(%rip)        # 73e4 <cookie>
    1f82:	74 2a                	je     1fae <touch2+0x48>
    1f84:	48 8d 35 25 24 00 00 	lea    0x2425(%rip),%rsi        # 43b0 <_IO_stdin_used+0x3b0>
    1f8b:	bf 01 00 00 00       	mov    $0x1,%edi
    1f90:	b8 00 00 00 00       	mov    $0x0,%eax
    1f95:	e8 16 f4 ff ff       	callq  13b0 <__printf_chk@plt>
    1f9a:	bf 02 00 00 00       	mov    $0x2,%edi
    1f9f:	e8 54 07 00 00       	callq  26f8 <fail>
    1fa4:	bf 00 00 00 00       	mov    $0x0,%edi
    1fa9:	e8 52 f4 ff ff       	callq  1400 <exit@plt>
    1fae:	48 8d 35 d3 23 00 00 	lea    0x23d3(%rip),%rsi        # 4388 <_IO_stdin_used+0x388>
    1fb5:	bf 01 00 00 00       	mov    $0x1,%edi
    1fba:	b8 00 00 00 00       	mov    $0x0,%eax
    1fbf:	e8 ec f3 ff ff       	callq  13b0 <__printf_chk@plt>
    1fc4:	bf 02 00 00 00       	mov    $0x2,%edi
    1fc9:	e8 56 06 00 00       	callq  2624 <validate>
    1fce:	eb d4                	jmp    1fa4 <touch2+0x3e>

0000000000001fd0 <hexmatch>:
    1fd0:	f3 0f 1e fa          	endbr64 
    1fd4:	41 55                	push   %r13
    1fd6:	41 54                	push   %r12
    1fd8:	55                   	push   %rbp
    1fd9:	53                   	push   %rbx
    1fda:	48 81 ec 88 00 00 00 	sub    $0x88,%rsp
    1fe1:	89 fd                	mov    %edi,%ebp
    1fe3:	48 89 f3             	mov    %rsi,%rbx
    1fe6:	41 bc 28 00 00 00    	mov    $0x28,%r12d
    1fec:	64 49 8b 04 24       	mov    %fs:(%r12),%rax
    1ff1:	48 89 44 24 78       	mov    %rax,0x78(%rsp)
    1ff6:	31 c0                	xor    %eax,%eax
    1ff8:	e8 83 f3 ff ff       	callq  1380 <random@plt>
    1ffd:	48 89 c1             	mov    %rax,%rcx
    2000:	48 ba 0b d7 a3 70 3d 	movabs $0xa3d70a3d70a3d70b,%rdx
    2007:	0a d7 a3 
    200a:	48 f7 ea             	imul   %rdx
    200d:	48 01 ca             	add    %rcx,%rdx
    2010:	48 c1 fa 06          	sar    $0x6,%rdx
    2014:	48 89 c8             	mov    %rcx,%rax
    2017:	48 c1 f8 3f          	sar    $0x3f,%rax
    201b:	48 29 c2             	sub    %rax,%rdx
    201e:	48 8d 04 92          	lea    (%rdx,%rdx,4),%rax
    2022:	48 8d 04 80          	lea    (%rax,%rax,4),%rax
    2026:	48 c1 e0 02          	shl    $0x2,%rax
    202a:	48 29 c1             	sub    %rax,%rcx
    202d:	4c 8d 2c 0c          	lea    (%rsp,%rcx,1),%r13
    2031:	41 89 e8             	mov    %ebp,%r8d
    2034:	48 8d 0d 44 23 00 00 	lea    0x2344(%rip),%rcx        # 437f <_IO_stdin_used+0x37f>
    203b:	48 c7 c2 ff ff ff ff 	mov    $0xffffffffffffffff,%rdx
    2042:	be 01 00 00 00       	mov    $0x1,%esi
    2047:	4c 89 ef             	mov    %r13,%rdi
    204a:	b8 00 00 00 00       	mov    $0x0,%eax
    204f:	e8 ec f3 ff ff       	callq  1440 <__sprintf_chk@plt>
    2054:	ba 09 00 00 00       	mov    $0x9,%edx
    2059:	4c 89 ee             	mov    %r13,%rsi
    205c:	48 89 df             	mov    %rbx,%rdi
    205f:	e8 1c f2 ff ff       	callq  1280 <strncmp@plt>
    2064:	85 c0                	test   %eax,%eax
    2066:	0f 94 c0             	sete   %al
    2069:	48 8b 5c 24 78       	mov    0x78(%rsp),%rbx
    206e:	64 49 33 1c 24       	xor    %fs:(%r12),%rbx
    2073:	75 11                	jne    2086 <hexmatch+0xb6>
    2075:	0f b6 c0             	movzbl %al,%eax
    2078:	48 81 c4 88 00 00 00 	add    $0x88,%rsp
    207f:	5b                   	pop    %rbx
    2080:	5d                   	pop    %rbp
    2081:	41 5c                	pop    %r12
    2083:	41 5d                	pop    %r13
    2085:	c3                   	retq   
    2086:	e8 35 f2 ff ff       	callq  12c0 <__stack_chk_fail@plt>

000000000000208b <touch3>:
    208b:	f3 0f 1e fa          	endbr64 
    208f:	53                   	push   %rbx
    2090:	48 89 fb             	mov    %rdi,%rbx
    2093:	c7 05 3f 53 00 00 03 	movl   $0x3,0x533f(%rip)        # 73dc <vlevel>
    209a:	00 00 00 
    209d:	48 89 fe             	mov    %rdi,%rsi
    20a0:	8b 3d 3e 53 00 00    	mov    0x533e(%rip),%edi        # 73e4 <cookie>
    20a6:	e8 25 ff ff ff       	callq  1fd0 <hexmatch>
    20ab:	85 c0                	test   %eax,%eax
    20ad:	74 2d                	je     20dc <touch3+0x51>
    20af:	48 89 da             	mov    %rbx,%rdx
    20b2:	48 8d 35 1f 23 00 00 	lea    0x231f(%rip),%rsi        # 43d8 <_IO_stdin_used+0x3d8>
    20b9:	bf 01 00 00 00       	mov    $0x1,%edi
    20be:	b8 00 00 00 00       	mov    $0x0,%eax
    20c3:	e8 e8 f2 ff ff       	callq  13b0 <__printf_chk@plt>
    20c8:	bf 03 00 00 00       	mov    $0x3,%edi
    20cd:	e8 52 05 00 00       	callq  2624 <validate>
    20d2:	bf 00 00 00 00       	mov    $0x0,%edi
    20d7:	e8 24 f3 ff ff       	callq  1400 <exit@plt>
    20dc:	48 89 da             	mov    %rbx,%rdx
    20df:	48 8d 35 1a 23 00 00 	lea    0x231a(%rip),%rsi        # 4400 <_IO_stdin_used+0x400>
    20e6:	bf 01 00 00 00       	mov    $0x1,%edi
    20eb:	b8 00 00 00 00       	mov    $0x0,%eax
    20f0:	e8 bb f2 ff ff       	callq  13b0 <__printf_chk@plt>
    20f5:	bf 03 00 00 00       	mov    $0x3,%edi
    20fa:	e8 f9 05 00 00       	callq  26f8 <fail>
    20ff:	eb d1                	jmp    20d2 <touch3+0x47>

0000000000002101 <test>:
    2101:	f3 0f 1e fa          	endbr64 
    2105:	48 83 ec 08          	sub    $0x8,%rsp
    2109:	b8 00 00 00 00       	mov    $0x0,%eax
    210e:	e8 05 fe ff ff       	callq  1f18 <getbuf>
    2113:	89 c2                	mov    %eax,%edx
    2115:	48 8d 35 0c 23 00 00 	lea    0x230c(%rip),%rsi        # 4428 <_IO_stdin_used+0x428>
    211c:	bf 01 00 00 00       	mov    $0x1,%edi
    2121:	b8 00 00 00 00       	mov    $0x0,%eax
    2126:	e8 85 f2 ff ff       	callq  13b0 <__printf_chk@plt>
    212b:	48 83 c4 08          	add    $0x8,%rsp
    212f:	c3                   	retq   

0000000000002130 <start_farm>:
    2130:	f3 0f 1e fa          	endbr64 
    2134:	b8 01 00 00 00       	mov    $0x1,%eax
    2139:	c3                   	retq   

000000000000213a <addval_240>:
    213a:	f3 0f 1e fa          	endbr64 
    213e:	8d 87 48 89 c7 92    	lea    -0x6d3876b8(%rdi),%eax
    2144:	c3                   	retq   

0000000000002145 <getval_207>:
    2145:	f3 0f 1e fa          	endbr64 
    2149:	b8 48 89 c7 c3       	mov    $0xc3c78948,%eax
    214e:	c3                   	retq   

000000000000214f <setval_353>:
    214f:	f3 0f 1e fa          	endbr64 
    2153:	c7 07 58 90 90 90    	movl   $0x90909058,(%rdi)
    2159:	c3                   	retq   

000000000000215a <addval_255>:
    215a:	f3 0f 1e fa          	endbr64 
    215e:	8d 87 85 a7 c7 58    	lea    0x58c7a785(%rdi),%eax
    2164:	c3                   	retq   

0000000000002165 <getval_452>:
    2165:	f3 0f 1e fa          	endbr64 
    2169:	b8 48 90 c3 9e       	mov    $0x9ec39048,%eax
    216e:	c3                   	retq   

000000000000216f <addval_410>:
    216f:	f3 0f 1e fa          	endbr64 
    2173:	8d 87 58 92 90 90    	lea    -0x6f6f6da8(%rdi),%eax
    2179:	c3                   	retq   

000000000000217a <setval_134>:
    217a:	f3 0f 1e fa          	endbr64 
    217e:	c7 07 48 89 c7 90    	movl   $0x90c78948,(%rdi)
    2184:	c3                   	retq   

0000000000002185 <setval_403>:
    2185:	f3 0f 1e fa          	endbr64 
    2189:	c7 07 48 89 c7 c2    	movl   $0xc2c78948,(%rdi)
    218f:	c3                   	retq   

0000000000002190 <mid_farm>:
    2190:	f3 0f 1e fa          	endbr64 
    2194:	b8 01 00 00 00       	mov    $0x1,%eax
    2199:	c3                   	retq   

000000000000219a <add_xy>:
    219a:	f3 0f 1e fa          	endbr64 
    219e:	48 8d 04 37          	lea    (%rdi,%rsi,1),%rax
    21a2:	c3                   	retq   

00000000000021a3 <addval_363>:
    21a3:	f3 0f 1e fa          	endbr64 
    21a7:	8d 87 09 ca c3 d4    	lea    -0x2b3c35f7(%rdi),%eax
    21ad:	c3                   	retq   

00000000000021ae <addval_245>:
    21ae:	f3 0f 1e fa          	endbr64 
    21b2:	8d 87 45 89 ca 92    	lea    -0x6d3576bb(%rdi),%eax
    21b8:	c3                   	retq   

00000000000021b9 <addval_421>:
    21b9:	f3 0f 1e fa          	endbr64 
    21bd:	8d 87 b8 97 8b d6    	lea    -0x29746848(%rdi),%eax
    21c3:	c3                   	retq   

00000000000021c4 <getval_464>:
    21c4:	f3 0f 1e fa          	endbr64 
    21c8:	b8 30 d3 89 c1       	mov    $0xc189d330,%eax
    21cd:	c3                   	retq   

00000000000021ce <setval_118>:
    21ce:	f3 0f 1e fa          	endbr64 
    21d2:	c7 07 48 89 e0 91    	movl   $0x91e08948,(%rdi)
    21d8:	c3                   	retq   

00000000000021d9 <addval_427>:
    21d9:	f3 0f 1e fa          	endbr64 
    21dd:	8d 87 23 81 c1 90    	lea    -0x6f3e7edd(%rdi),%eax
    21e3:	c3                   	retq   

00000000000021e4 <getval_432>:
    21e4:	f3 0f 1e fa          	endbr64 
    21e8:	b8 89 c1 94 c0       	mov    $0xc094c189,%eax
    21ed:	c3                   	retq   

00000000000021ee <setval_125>:
    21ee:	f3 0f 1e fa          	endbr64 
    21f2:	c7 07 89 ca 18 d2    	movl   $0xd218ca89,(%rdi)
    21f8:	c3                   	retq   

00000000000021f9 <getval_429>:
    21f9:	f3 0f 1e fa          	endbr64 
    21fd:	b8 89 ca 84 db       	mov    $0xdb84ca89,%eax
    2202:	c3                   	retq   

0000000000002203 <setval_121>:
    2203:	f3 0f 1e fa          	endbr64 
    2207:	c7 07 89 d6 92 90    	movl   $0x9092d689,(%rdi)
    220d:	c3                   	retq   

000000000000220e <setval_249>:
    220e:	f3 0f 1e fa          	endbr64 
    2212:	c7 07 89 ca 08 d2    	movl   $0xd208ca89,(%rdi)
    2218:	c3                   	retq   

0000000000002219 <addval_388>:
    2219:	f3 0f 1e fa          	endbr64 
    221d:	8d 87 48 09 e0 c3    	lea    -0x3c1ff6b8(%rdi),%eax
    2223:	c3                   	retq   

0000000000002224 <getval_390>:
    2224:	f3 0f 1e fa          	endbr64 
    2228:	b8 5d 40 89 e0       	mov    $0xe089405d,%eax
    222d:	c3                   	retq   

000000000000222e <getval_369>:
    222e:	f3 0f 1e fa          	endbr64 
    2232:	b8 8b d6 08 c0       	mov    $0xc008d68b,%eax
    2237:	c3                   	retq   

0000000000002238 <setval_309>:
    2238:	f3 0f 1e fa          	endbr64 
    223c:	c7 07 a9 ca 90 90    	movl   $0x9090caa9,(%rdi)
    2242:	c3                   	retq   

0000000000002243 <getval_482>:
    2243:	f3 0f 1e fa          	endbr64 
    2247:	b8 48 89 e0 92       	mov    $0x92e08948,%eax
    224c:	c3                   	retq   

000000000000224d <setval_227>:
    224d:	f3 0f 1e fa          	endbr64 
    2251:	c7 07 49 89 e0 90    	movl   $0x90e08949,(%rdi)
    2257:	c3                   	retq   

0000000000002258 <setval_122>:
    2258:	f3 0f 1e fa          	endbr64 
    225c:	c7 07 61 89 d6 c1    	movl   $0xc1d68961,(%rdi)
    2262:	c3                   	retq   

0000000000002263 <getval_112>:
    2263:	f3 0f 1e fa          	endbr64 
    2267:	b8 89 d6 78 c0       	mov    $0xc078d689,%eax
    226c:	c3                   	retq   

000000000000226d <addval_499>:
    226d:	f3 0f 1e fa          	endbr64 
    2271:	8d 87 86 89 c1 c3    	lea    -0x3c3e767a(%rdi),%eax
    2277:	c3                   	retq   

0000000000002278 <setval_348>:
    2278:	f3 0f 1e fa          	endbr64 
    227c:	c7 07 09 ca 08 c9    	movl   $0xc908ca09,(%rdi)
    2282:	c3                   	retq   

0000000000002283 <setval_290>:
    2283:	f3 0f 1e fa          	endbr64 
    2287:	c7 07 89 d6 08 c9    	movl   $0xc908d689,(%rdi)
    228d:	c3                   	retq   

000000000000228e <setval_446>:
    228e:	f3 0f 1e fa          	endbr64 
    2292:	c7 07 8d c1 38 c9    	movl   $0xc938c18d,(%rdi)
    2298:	c3                   	retq   

0000000000002299 <getval_138>:
    2299:	f3 0f 1e fa          	endbr64 
    229d:	b8 8d c1 90 90       	mov    $0x9090c18d,%eax
    22a2:	c3                   	retq   

00000000000022a3 <addval_395>:
    22a3:	f3 0f 1e fa          	endbr64 
    22a7:	8d 87 48 89 e0 c3    	lea    -0x3c1f76b8(%rdi),%eax
    22ad:	c3                   	retq   

00000000000022ae <getval_166>:
    22ae:	f3 0f 1e fa          	endbr64 
    22b2:	b8 89 c1 28 db       	mov    $0xdb28c189,%eax
    22b7:	c3                   	retq   

00000000000022b8 <setval_460>:
    22b8:	f3 0f 1e fa          	endbr64 
    22bc:	c7 07 4f 3f 81 d6    	movl   $0xd6813f4f,(%rdi)
    22c2:	c3                   	retq   

00000000000022c3 <setval_173>:
    22c3:	f3 0f 1e fa          	endbr64 
    22c7:	c7 07 c9 ca 20 c0    	movl   $0xc020cac9,(%rdi)
    22cd:	c3                   	retq   

00000000000022ce <setval_356>:
    22ce:	f3 0f 1e fa          	endbr64 
    22d2:	c7 07 88 c1 08 c0    	movl   $0xc008c188,(%rdi)
    22d8:	c3                   	retq   

00000000000022d9 <setval_181>:
    22d9:	f3 0f 1e fa          	endbr64 
    22dd:	c7 07 4a 89 e0 c3    	movl   $0xc3e0894a,(%rdi)
    22e3:	c3                   	retq   

00000000000022e4 <addval_129>:
    22e4:	f3 0f 1e fa          	endbr64 
    22e8:	8d 87 4c 0c 89 d6    	lea    -0x2976f3b4(%rdi),%eax
    22ee:	c3                   	retq   

00000000000022ef <addval_107>:
    22ef:	f3 0f 1e fa          	endbr64 
    22f3:	8d 87 48 89 e0 c3    	lea    -0x3c1f76b8(%rdi),%eax
    22f9:	c3                   	retq   

00000000000022fa <end_farm>:
    22fa:	f3 0f 1e fa          	endbr64 
    22fe:	b8 01 00 00 00       	mov    $0x1,%eax
    2303:	c3                   	retq   

0000000000002304 <save_char>:
    2304:	8b 05 fa 5c 00 00    	mov    0x5cfa(%rip),%eax        # 8004 <gets_cnt>
    230a:	3d ff 03 00 00       	cmp    $0x3ff,%eax
    230f:	7f 4a                	jg     235b <save_char+0x57>
    2311:	89 f9                	mov    %edi,%ecx
    2313:	c0 e9 04             	shr    $0x4,%cl
    2316:	8d 14 40             	lea    (%rax,%rax,2),%edx
    2319:	4c 8d 05 30 24 00 00 	lea    0x2430(%rip),%r8        # 4750 <trans_char>
    2320:	83 e1 0f             	and    $0xf,%ecx
    2323:	45 0f b6 0c 08       	movzbl (%r8,%rcx,1),%r9d
    2328:	48 8d 0d d1 50 00 00 	lea    0x50d1(%rip),%rcx        # 7400 <gets_buf>
    232f:	48 63 f2             	movslq %edx,%rsi
    2332:	44 88 0c 31          	mov    %r9b,(%rcx,%rsi,1)
    2336:	8d 72 01             	lea    0x1(%rdx),%esi
    2339:	83 e7 0f             	and    $0xf,%edi
    233c:	41 0f b6 3c 38       	movzbl (%r8,%rdi,1),%edi
    2341:	48 63 f6             	movslq %esi,%rsi
    2344:	40 88 3c 31          	mov    %dil,(%rcx,%rsi,1)
    2348:	83 c2 02             	add    $0x2,%edx
    234b:	48 63 d2             	movslq %edx,%rdx
    234e:	c6 04 11 20          	movb   $0x20,(%rcx,%rdx,1)
    2352:	83 c0 01             	add    $0x1,%eax
    2355:	89 05 a9 5c 00 00    	mov    %eax,0x5ca9(%rip)        # 8004 <gets_cnt>
    235b:	c3                   	retq   

000000000000235c <save_term>:
    235c:	8b 05 a2 5c 00 00    	mov    0x5ca2(%rip),%eax        # 8004 <gets_cnt>
    2362:	8d 04 40             	lea    (%rax,%rax,2),%eax
    2365:	48 98                	cltq   
    2367:	48 8d 15 92 50 00 00 	lea    0x5092(%rip),%rdx        # 7400 <gets_buf>
    236e:	c6 04 02 00          	movb   $0x0,(%rdx,%rax,1)
    2372:	c3                   	retq   

0000000000002373 <check_fail>:
    2373:	f3 0f 1e fa          	endbr64 
    2377:	50                   	push   %rax
    2378:	58                   	pop    %rax
    2379:	48 83 ec 08          	sub    $0x8,%rsp
    237d:	0f be 15 84 5c 00 00 	movsbl 0x5c84(%rip),%edx        # 8008 <target_prefix>
    2384:	4c 8d 05 75 50 00 00 	lea    0x5075(%rip),%r8        # 7400 <gets_buf>
    238b:	8b 0d 47 50 00 00    	mov    0x5047(%rip),%ecx        # 73d8 <check_level>
    2391:	48 8d 35 b3 20 00 00 	lea    0x20b3(%rip),%rsi        # 444b <_IO_stdin_used+0x44b>
    2398:	bf 01 00 00 00       	mov    $0x1,%edi
    239d:	b8 00 00 00 00       	mov    $0x0,%eax
    23a2:	e8 09 f0 ff ff       	callq  13b0 <__printf_chk@plt>
    23a7:	bf 01 00 00 00       	mov    $0x1,%edi
    23ac:	e8 4f f0 ff ff       	callq  1400 <exit@plt>

00000000000023b1 <Gets>:
    23b1:	f3 0f 1e fa          	endbr64 
    23b5:	41 54                	push   %r12
    23b7:	55                   	push   %rbp
    23b8:	53                   	push   %rbx
    23b9:	49 89 fc             	mov    %rdi,%r12
    23bc:	c7 05 3e 5c 00 00 00 	movl   $0x0,0x5c3e(%rip)        # 8004 <gets_cnt>
    23c3:	00 00 00 
    23c6:	48 89 fb             	mov    %rdi,%rbx
    23c9:	48 8b 3d 00 50 00 00 	mov    0x5000(%rip),%rdi        # 73d0 <infile>
    23d0:	e8 5b f0 ff ff       	callq  1430 <getc@plt>
    23d5:	83 f8 ff             	cmp    $0xffffffff,%eax
    23d8:	74 18                	je     23f2 <Gets+0x41>
    23da:	83 f8 0a             	cmp    $0xa,%eax
    23dd:	74 13                	je     23f2 <Gets+0x41>
    23df:	48 8d 6b 01          	lea    0x1(%rbx),%rbp
    23e3:	88 03                	mov    %al,(%rbx)
    23e5:	0f b6 f8             	movzbl %al,%edi
    23e8:	e8 17 ff ff ff       	callq  2304 <save_char>
    23ed:	48 89 eb             	mov    %rbp,%rbx
    23f0:	eb d7                	jmp    23c9 <Gets+0x18>
    23f2:	c6 03 00             	movb   $0x0,(%rbx)
    23f5:	b8 00 00 00 00       	mov    $0x0,%eax
    23fa:	e8 5d ff ff ff       	callq  235c <save_term>
    23ff:	4c 89 e0             	mov    %r12,%rax
    2402:	5b                   	pop    %rbx
    2403:	5d                   	pop    %rbp
    2404:	41 5c                	pop    %r12
    2406:	c3                   	retq   

0000000000002407 <notify_server>:
    2407:	f3 0f 1e fa          	endbr64 
    240b:	55                   	push   %rbp
    240c:	53                   	push   %rbx
    240d:	4c 8d 9c 24 00 c0 ff 	lea    -0x4000(%rsp),%r11
    2414:	ff 
    2415:	48 81 ec 00 10 00 00 	sub    $0x1000,%rsp
    241c:	48 83 0c 24 00       	orq    $0x0,(%rsp)
    2421:	4c 39 dc             	cmp    %r11,%rsp
    2424:	75 ef                	jne    2415 <notify_server+0xe>
    2426:	48 83 ec 18          	sub    $0x18,%rsp
    242a:	64 48 8b 04 25 28 00 	mov    %fs:0x28,%rax
    2431:	00 00 
    2433:	48 89 84 24 08 40 00 	mov    %rax,0x4008(%rsp)
    243a:	00 
    243b:	31 c0                	xor    %eax,%eax
    243d:	83 3d a4 4f 00 00 00 	cmpl   $0x0,0x4fa4(%rip)        # 73e8 <is_checker>
    2444:	0f 85 26 01 00 00    	jne    2570 <notify_server+0x169>
    244a:	89 fb                	mov    %edi,%ebx
    244c:	81 3d ae 5b 00 00 9c 	cmpl   $0x1f9c,0x5bae(%rip)        # 8004 <gets_cnt>
    2453:	1f 00 00 
    2456:	7f 18                	jg     2470 <notify_server+0x69>
    2458:	0f be 05 a9 5b 00 00 	movsbl 0x5ba9(%rip),%eax        # 8008 <target_prefix>
    245f:	83 3d 02 4f 00 00 00 	cmpl   $0x0,0x4f02(%rip)        # 7368 <notify>
    2466:	74 23                	je     248b <notify_server+0x84>
    2468:	8b 15 72 4f 00 00    	mov    0x4f72(%rip),%edx        # 73e0 <authkey>
    246e:	eb 20                	jmp    2490 <notify_server+0x89>
    2470:	48 8d 35 09 21 00 00 	lea    0x2109(%rip),%rsi        # 4580 <_IO_stdin_used+0x580>
    2477:	bf 01 00 00 00       	mov    $0x1,%edi
    247c:	e8 2f ef ff ff       	callq  13b0 <__printf_chk@plt>
    2481:	bf 01 00 00 00       	mov    $0x1,%edi
    2486:	e8 75 ef ff ff       	callq  1400 <exit@plt>
    248b:	ba ff ff ff ff       	mov    $0xffffffff,%edx
    2490:	85 db                	test   %ebx,%ebx
    2492:	0f 84 98 00 00 00    	je     2530 <notify_server+0x129>
    2498:	48 8d 2d c7 1f 00 00 	lea    0x1fc7(%rip),%rbp        # 4466 <_IO_stdin_used+0x466>
    249f:	48 89 e7             	mov    %rsp,%rdi
    24a2:	48 8d 0d 57 4f 00 00 	lea    0x4f57(%rip),%rcx        # 7400 <gets_buf>
    24a9:	51                   	push   %rcx
    24aa:	56                   	push   %rsi
    24ab:	50                   	push   %rax
    24ac:	52                   	push   %rdx
    24ad:	49 89 e9             	mov    %rbp,%r9
    24b0:	44 8b 05 59 4b 00 00 	mov    0x4b59(%rip),%r8d        # 7010 <target_id>
    24b7:	48 8d 0d ad 1f 00 00 	lea    0x1fad(%rip),%rcx        # 446b <_IO_stdin_used+0x46b>
    24be:	ba 00 20 00 00       	mov    $0x2000,%edx
    24c3:	be 01 00 00 00       	mov    $0x1,%esi
    24c8:	b8 00 00 00 00       	mov    $0x0,%eax
    24cd:	e8 6e ef ff ff       	callq  1440 <__sprintf_chk@plt>
    24d2:	48 83 c4 20          	add    $0x20,%rsp
    24d6:	83 3d 8b 4e 00 00 00 	cmpl   $0x0,0x4e8b(%rip)        # 7368 <notify>
    24dd:	0f 84 ae 00 00 00    	je     2591 <notify_server+0x18a>
    24e3:	85 db                	test   %ebx,%ebx
    24e5:	74 7d                	je     2564 <notify_server+0x15d>
    24e7:	48 89 e1             	mov    %rsp,%rcx
    24ea:	4c 8d 8c 24 00 20 00 	lea    0x2000(%rsp),%r9
    24f1:	00 
    24f2:	41 b8 00 00 00 00    	mov    $0x0,%r8d
    24f8:	48 8b 15 29 4b 00 00 	mov    0x4b29(%rip),%rdx        # 7028 <lab>
    24ff:	48 8b 35 2a 4b 00 00 	mov    0x4b2a(%rip),%rsi        # 7030 <course>
    2506:	48 8b 3d 13 4b 00 00 	mov    0x4b13(%rip),%rdi        # 7020 <user_id>
    250d:	e8 d9 11 00 00       	callq  36eb <driver_post>
    2512:	85 c0                	test   %eax,%eax
    2514:	78 26                	js     253c <notify_server+0x135>
    2516:	48 8d 3d 93 20 00 00 	lea    0x2093(%rip),%rdi        # 45b0 <_IO_stdin_used+0x5b0>
    251d:	e8 7e ed ff ff       	callq  12a0 <puts@plt>
    2522:	48 8d 3d 6a 1f 00 00 	lea    0x1f6a(%rip),%rdi        # 4493 <_IO_stdin_used+0x493>
    2529:	e8 72 ed ff ff       	callq  12a0 <puts@plt>
    252e:	eb 40                	jmp    2570 <notify_server+0x169>
    2530:	48 8d 2d 2a 1f 00 00 	lea    0x1f2a(%rip),%rbp        # 4461 <_IO_stdin_used+0x461>
    2537:	e9 63 ff ff ff       	jmpq   249f <notify_server+0x98>
    253c:	48 8d 94 24 00 20 00 	lea    0x2000(%rsp),%rdx
    2543:	00 
    2544:	48 8d 35 3c 1f 00 00 	lea    0x1f3c(%rip),%rsi        # 4487 <_IO_stdin_used+0x487>
    254b:	bf 01 00 00 00       	mov    $0x1,%edi
    2550:	b8 00 00 00 00       	mov    $0x0,%eax
    2555:	e8 56 ee ff ff       	callq  13b0 <__printf_chk@plt>
    255a:	bf 01 00 00 00       	mov    $0x1,%edi
    255f:	e8 9c ee ff ff       	callq  1400 <exit@plt>
    2564:	48 8d 3d 32 1f 00 00 	lea    0x1f32(%rip),%rdi        # 449d <_IO_stdin_used+0x49d>
    256b:	e8 30 ed ff ff       	callq  12a0 <puts@plt>
    2570:	48 8b 84 24 08 40 00 	mov    0x4008(%rsp),%rax
    2577:	00 
    2578:	64 48 33 04 25 28 00 	xor    %fs:0x28,%rax
    257f:	00 00 
    2581:	0f 85 98 00 00 00    	jne    261f <notify_server+0x218>
    2587:	48 81 c4 18 40 00 00 	add    $0x4018,%rsp
    258e:	5b                   	pop    %rbx
    258f:	5d                   	pop    %rbp
    2590:	c3                   	retq   
    2591:	48 89 ea             	mov    %rbp,%rdx
    2594:	48 8d 35 4d 20 00 00 	lea    0x204d(%rip),%rsi        # 45e8 <_IO_stdin_used+0x5e8>
    259b:	bf 01 00 00 00       	mov    $0x1,%edi
    25a0:	b8 00 00 00 00       	mov    $0x0,%eax
    25a5:	e8 06 ee ff ff       	callq  13b0 <__printf_chk@plt>
    25aa:	48 8b 15 6f 4a 00 00 	mov    0x4a6f(%rip),%rdx        # 7020 <user_id>
    25b1:	48 8d 35 ec 1e 00 00 	lea    0x1eec(%rip),%rsi        # 44a4 <_IO_stdin_used+0x4a4>
    25b8:	bf 01 00 00 00       	mov    $0x1,%edi
    25bd:	b8 00 00 00 00       	mov    $0x0,%eax
    25c2:	e8 e9 ed ff ff       	callq  13b0 <__printf_chk@plt>
    25c7:	48 8b 15 62 4a 00 00 	mov    0x4a62(%rip),%rdx        # 7030 <course>
    25ce:	48 8d 35 dc 1e 00 00 	lea    0x1edc(%rip),%rsi        # 44b1 <_IO_stdin_used+0x4b1>
    25d5:	bf 01 00 00 00       	mov    $0x1,%edi
    25da:	b8 00 00 00 00       	mov    $0x0,%eax
    25df:	e8 cc ed ff ff       	callq  13b0 <__printf_chk@plt>
    25e4:	48 8b 15 3d 4a 00 00 	mov    0x4a3d(%rip),%rdx        # 7028 <lab>
    25eb:	48 8d 35 cb 1e 00 00 	lea    0x1ecb(%rip),%rsi        # 44bd <_IO_stdin_used+0x4bd>
    25f2:	bf 01 00 00 00       	mov    $0x1,%edi
    25f7:	b8 00 00 00 00       	mov    $0x0,%eax
    25fc:	e8 af ed ff ff       	callq  13b0 <__printf_chk@plt>
    2601:	48 89 e2             	mov    %rsp,%rdx
    2604:	48 8d 35 bb 1e 00 00 	lea    0x1ebb(%rip),%rsi        # 44c6 <_IO_stdin_used+0x4c6>
    260b:	bf 01 00 00 00       	mov    $0x1,%edi
    2610:	b8 00 00 00 00       	mov    $0x0,%eax
    2615:	e8 96 ed ff ff       	callq  13b0 <__printf_chk@plt>
    261a:	e9 51 ff ff ff       	jmpq   2570 <notify_server+0x169>
    261f:	e8 9c ec ff ff       	callq  12c0 <__stack_chk_fail@plt>

0000000000002624 <validate>:
    2624:	f3 0f 1e fa          	endbr64 
    2628:	53                   	push   %rbx
    2629:	89 fb                	mov    %edi,%ebx
    262b:	83 3d b6 4d 00 00 00 	cmpl   $0x0,0x4db6(%rip)        # 73e8 <is_checker>
    2632:	74 72                	je     26a6 <validate+0x82>
    2634:	39 3d a2 4d 00 00    	cmp    %edi,0x4da2(%rip)        # 73dc <vlevel>
    263a:	75 32                	jne    266e <validate+0x4a>
    263c:	8b 15 96 4d 00 00    	mov    0x4d96(%rip),%edx        # 73d8 <check_level>
    2642:	39 fa                	cmp    %edi,%edx
    2644:	75 3e                	jne    2684 <validate+0x60>
    2646:	0f be 15 bb 59 00 00 	movsbl 0x59bb(%rip),%edx        # 8008 <target_prefix>
    264d:	4c 8d 05 ac 4d 00 00 	lea    0x4dac(%rip),%r8        # 7400 <gets_buf>
    2654:	89 f9                	mov    %edi,%ecx
    2656:	48 8d 35 93 1e 00 00 	lea    0x1e93(%rip),%rsi        # 44f0 <_IO_stdin_used+0x4f0>
    265d:	bf 01 00 00 00       	mov    $0x1,%edi
    2662:	b8 00 00 00 00       	mov    $0x0,%eax
    2667:	e8 44 ed ff ff       	callq  13b0 <__printf_chk@plt>
    266c:	5b                   	pop    %rbx
    266d:	c3                   	retq   
    266e:	48 8d 3d 5d 1e 00 00 	lea    0x1e5d(%rip),%rdi        # 44d2 <_IO_stdin_used+0x4d2>
    2675:	e8 26 ec ff ff       	callq  12a0 <puts@plt>
    267a:	b8 00 00 00 00       	mov    $0x0,%eax
    267f:	e8 ef fc ff ff       	callq  2373 <check_fail>
    2684:	89 f9                	mov    %edi,%ecx
    2686:	48 8d 35 83 1f 00 00 	lea    0x1f83(%rip),%rsi        # 4610 <_IO_stdin_used+0x610>
    268d:	bf 01 00 00 00       	mov    $0x1,%edi
    2692:	b8 00 00 00 00       	mov    $0x0,%eax
    2697:	e8 14 ed ff ff       	callq  13b0 <__printf_chk@plt>
    269c:	b8 00 00 00 00       	mov    $0x0,%eax
    26a1:	e8 cd fc ff ff       	callq  2373 <check_fail>
    26a6:	39 3d 30 4d 00 00    	cmp    %edi,0x4d30(%rip)        # 73dc <vlevel>
    26ac:	74 1a                	je     26c8 <validate+0xa4>
    26ae:	48 8d 3d 1d 1e 00 00 	lea    0x1e1d(%rip),%rdi        # 44d2 <_IO_stdin_used+0x4d2>
    26b5:	e8 e6 eb ff ff       	callq  12a0 <puts@plt>
    26ba:	89 de                	mov    %ebx,%esi
    26bc:	bf 00 00 00 00       	mov    $0x0,%edi
    26c1:	e8 41 fd ff ff       	callq  2407 <notify_server>
    26c6:	eb a4                	jmp    266c <validate+0x48>
    26c8:	0f be 0d 39 59 00 00 	movsbl 0x5939(%rip),%ecx        # 8008 <target_prefix>
    26cf:	89 fa                	mov    %edi,%edx
    26d1:	48 8d 35 60 1f 00 00 	lea    0x1f60(%rip),%rsi        # 4638 <_IO_stdin_used+0x638>
    26d8:	bf 01 00 00 00       	mov    $0x1,%edi
    26dd:	b8 00 00 00 00       	mov    $0x0,%eax
    26e2:	e8 c9 ec ff ff       	callq  13b0 <__printf_chk@plt>
    26e7:	89 de                	mov    %ebx,%esi
    26e9:	bf 01 00 00 00       	mov    $0x1,%edi
    26ee:	e8 14 fd ff ff       	callq  2407 <notify_server>
    26f3:	e9 74 ff ff ff       	jmpq   266c <validate+0x48>

00000000000026f8 <fail>:
    26f8:	f3 0f 1e fa          	endbr64 
    26fc:	48 83 ec 08          	sub    $0x8,%rsp
    2700:	83 3d e1 4c 00 00 00 	cmpl   $0x0,0x4ce1(%rip)        # 73e8 <is_checker>
    2707:	75 11                	jne    271a <fail+0x22>
    2709:	89 fe                	mov    %edi,%esi
    270b:	bf 00 00 00 00       	mov    $0x0,%edi
    2710:	e8 f2 fc ff ff       	callq  2407 <notify_server>
    2715:	48 83 c4 08          	add    $0x8,%rsp
    2719:	c3                   	retq   
    271a:	b8 00 00 00 00       	mov    $0x0,%eax
    271f:	e8 4f fc ff ff       	callq  2373 <check_fail>

0000000000002724 <bushandler>:
    2724:	f3 0f 1e fa          	endbr64 
    2728:	50                   	push   %rax
    2729:	58                   	pop    %rax
    272a:	48 83 ec 08          	sub    $0x8,%rsp
    272e:	83 3d b3 4c 00 00 00 	cmpl   $0x0,0x4cb3(%rip)        # 73e8 <is_checker>
    2735:	74 16                	je     274d <bushandler+0x29>
    2737:	48 8d 3d c7 1d 00 00 	lea    0x1dc7(%rip),%rdi        # 4505 <_IO_stdin_used+0x505>
    273e:	e8 5d eb ff ff       	callq  12a0 <puts@plt>
    2743:	b8 00 00 00 00       	mov    $0x0,%eax
    2748:	e8 26 fc ff ff       	callq  2373 <check_fail>
    274d:	48 8d 3d 1c 1f 00 00 	lea    0x1f1c(%rip),%rdi        # 4670 <_IO_stdin_used+0x670>
    2754:	e8 47 eb ff ff       	callq  12a0 <puts@plt>
    2759:	48 8d 3d af 1d 00 00 	lea    0x1daf(%rip),%rdi        # 450f <_IO_stdin_used+0x50f>
    2760:	e8 3b eb ff ff       	callq  12a0 <puts@plt>
    2765:	be 00 00 00 00       	mov    $0x0,%esi
    276a:	bf 00 00 00 00       	mov    $0x0,%edi
    276f:	e8 93 fc ff ff       	callq  2407 <notify_server>
    2774:	bf 01 00 00 00       	mov    $0x1,%edi
    2779:	e8 82 ec ff ff       	callq  1400 <exit@plt>

000000000000277e <seghandler>:
    277e:	f3 0f 1e fa          	endbr64 
    2782:	50                   	push   %rax
    2783:	58                   	pop    %rax
    2784:	48 83 ec 08          	sub    $0x8,%rsp
    2788:	83 3d 59 4c 00 00 00 	cmpl   $0x0,0x4c59(%rip)        # 73e8 <is_checker>
    278f:	74 16                	je     27a7 <seghandler+0x29>
    2791:	48 8d 3d 8d 1d 00 00 	lea    0x1d8d(%rip),%rdi        # 4525 <_IO_stdin_used+0x525>
    2798:	e8 03 eb ff ff       	callq  12a0 <puts@plt>
    279d:	b8 00 00 00 00       	mov    $0x0,%eax
    27a2:	e8 cc fb ff ff       	callq  2373 <check_fail>
    27a7:	48 8d 3d e2 1e 00 00 	lea    0x1ee2(%rip),%rdi        # 4690 <_IO_stdin_used+0x690>
    27ae:	e8 ed ea ff ff       	callq  12a0 <puts@plt>
    27b3:	48 8d 3d 55 1d 00 00 	lea    0x1d55(%rip),%rdi        # 450f <_IO_stdin_used+0x50f>
    27ba:	e8 e1 ea ff ff       	callq  12a0 <puts@plt>
    27bf:	be 00 00 00 00       	mov    $0x0,%esi
    27c4:	bf 00 00 00 00       	mov    $0x0,%edi
    27c9:	e8 39 fc ff ff       	callq  2407 <notify_server>
    27ce:	bf 01 00 00 00       	mov    $0x1,%edi
    27d3:	e8 28 ec ff ff       	callq  1400 <exit@plt>

00000000000027d8 <illegalhandler>:
    27d8:	f3 0f 1e fa          	endbr64 
    27dc:	50                   	push   %rax
    27dd:	58                   	pop    %rax
    27de:	48 83 ec 08          	sub    $0x8,%rsp
    27e2:	83 3d ff 4b 00 00 00 	cmpl   $0x0,0x4bff(%rip)        # 73e8 <is_checker>
    27e9:	74 16                	je     2801 <illegalhandler+0x29>
    27eb:	48 8d 3d 46 1d 00 00 	lea    0x1d46(%rip),%rdi        # 4538 <_IO_stdin_used+0x538>
    27f2:	e8 a9 ea ff ff       	callq  12a0 <puts@plt>
    27f7:	b8 00 00 00 00       	mov    $0x0,%eax
    27fc:	e8 72 fb ff ff       	callq  2373 <check_fail>
    2801:	48 8d 3d b0 1e 00 00 	lea    0x1eb0(%rip),%rdi        # 46b8 <_IO_stdin_used+0x6b8>
    2808:	e8 93 ea ff ff       	callq  12a0 <puts@plt>
    280d:	48 8d 3d fb 1c 00 00 	lea    0x1cfb(%rip),%rdi        # 450f <_IO_stdin_used+0x50f>
    2814:	e8 87 ea ff ff       	callq  12a0 <puts@plt>
    2819:	be 00 00 00 00       	mov    $0x0,%esi
    281e:	bf 00 00 00 00       	mov    $0x0,%edi
    2823:	e8 df fb ff ff       	callq  2407 <notify_server>
    2828:	bf 01 00 00 00       	mov    $0x1,%edi
    282d:	e8 ce eb ff ff       	callq  1400 <exit@plt>

0000000000002832 <sigalrmhandler>:
    2832:	f3 0f 1e fa          	endbr64 
    2836:	50                   	push   %rax
    2837:	58                   	pop    %rax
    2838:	48 83 ec 08          	sub    $0x8,%rsp
    283c:	83 3d a5 4b 00 00 00 	cmpl   $0x0,0x4ba5(%rip)        # 73e8 <is_checker>
    2843:	74 16                	je     285b <sigalrmhandler+0x29>
    2845:	48 8d 3d 00 1d 00 00 	lea    0x1d00(%rip),%rdi        # 454c <_IO_stdin_used+0x54c>
    284c:	e8 4f ea ff ff       	callq  12a0 <puts@plt>
    2851:	b8 00 00 00 00       	mov    $0x0,%eax
    2856:	e8 18 fb ff ff       	callq  2373 <check_fail>
    285b:	ba 05 00 00 00       	mov    $0x5,%edx
    2860:	48 8d 35 81 1e 00 00 	lea    0x1e81(%rip),%rsi        # 46e8 <_IO_stdin_used+0x6e8>
    2867:	bf 01 00 00 00       	mov    $0x1,%edi
    286c:	b8 00 00 00 00       	mov    $0x0,%eax
    2871:	e8 3a eb ff ff       	callq  13b0 <__printf_chk@plt>
    2876:	be 00 00 00 00       	mov    $0x0,%esi
    287b:	bf 00 00 00 00       	mov    $0x0,%edi
    2880:	e8 82 fb ff ff       	callq  2407 <notify_server>
    2885:	bf 01 00 00 00       	mov    $0x1,%edi
    288a:	e8 71 eb ff ff       	callq  1400 <exit@plt>

000000000000288f <launch>:
    288f:	f3 0f 1e fa          	endbr64 
    2893:	55                   	push   %rbp
    2894:	48 89 e5             	mov    %rsp,%rbp
    2897:	48 83 ec 10          	sub    $0x10,%rsp
    289b:	48 89 fa             	mov    %rdi,%rdx
    289e:	64 48 8b 04 25 28 00 	mov    %fs:0x28,%rax
    28a5:	00 00 
    28a7:	48 89 45 f8          	mov    %rax,-0x8(%rbp)
    28ab:	31 c0                	xor    %eax,%eax
    28ad:	48 8d 47 17          	lea    0x17(%rdi),%rax
    28b1:	48 89 c1             	mov    %rax,%rcx
    28b4:	48 83 e1 f0          	and    $0xfffffffffffffff0,%rcx
    28b8:	48 25 00 f0 ff ff    	and    $0xfffffffffffff000,%rax
    28be:	48 89 e6             	mov    %rsp,%rsi
    28c1:	48 29 c6             	sub    %rax,%rsi
    28c4:	48 89 f0             	mov    %rsi,%rax
    28c7:	48 39 c4             	cmp    %rax,%rsp
    28ca:	74 12                	je     28de <launch+0x4f>
    28cc:	48 81 ec 00 10 00 00 	sub    $0x1000,%rsp
    28d3:	48 83 8c 24 f8 0f 00 	orq    $0x0,0xff8(%rsp)
    28da:	00 00 
    28dc:	eb e9                	jmp    28c7 <launch+0x38>
    28de:	48 89 c8             	mov    %rcx,%rax
    28e1:	25 ff 0f 00 00       	and    $0xfff,%eax
    28e6:	48 29 c4             	sub    %rax,%rsp
    28e9:	48 85 c0             	test   %rax,%rax
    28ec:	74 06                	je     28f4 <launch+0x65>
    28ee:	48 83 4c 04 f8 00    	orq    $0x0,-0x8(%rsp,%rax,1)
    28f4:	48 8d 7c 24 0f       	lea    0xf(%rsp),%rdi
    28f9:	48 83 e7 f0          	and    $0xfffffffffffffff0,%rdi
    28fd:	be f4 00 00 00       	mov    $0xf4,%esi
    2902:	e8 d9 e9 ff ff       	callq  12e0 <memset@plt>
    2907:	48 8b 05 72 4a 00 00 	mov    0x4a72(%rip),%rax        # 7380 <stdin@@GLIBC_2.2.5>
    290e:	48 39 05 bb 4a 00 00 	cmp    %rax,0x4abb(%rip)        # 73d0 <infile>
    2915:	74 3a                	je     2951 <launch+0xc2>
    2917:	c7 05 bb 4a 00 00 00 	movl   $0x0,0x4abb(%rip)        # 73dc <vlevel>
    291e:	00 00 00 
    2921:	b8 00 00 00 00       	mov    $0x0,%eax
    2926:	e8 d6 f7 ff ff       	callq  2101 <test>
    292b:	83 3d b6 4a 00 00 00 	cmpl   $0x0,0x4ab6(%rip)        # 73e8 <is_checker>
    2932:	75 35                	jne    2969 <launch+0xda>
    2934:	48 8d 3d 31 1c 00 00 	lea    0x1c31(%rip),%rdi        # 456c <_IO_stdin_used+0x56c>
    293b:	e8 60 e9 ff ff       	callq  12a0 <puts@plt>
    2940:	48 8b 45 f8          	mov    -0x8(%rbp),%rax
    2944:	64 48 33 04 25 28 00 	xor    %fs:0x28,%rax
    294b:	00 00 
    294d:	75 30                	jne    297f <launch+0xf0>
    294f:	c9                   	leaveq 
    2950:	c3                   	retq   
    2951:	48 8d 35 fc 1b 00 00 	lea    0x1bfc(%rip),%rsi        # 4554 <_IO_stdin_used+0x554>
    2958:	bf 01 00 00 00       	mov    $0x1,%edi
    295d:	b8 00 00 00 00       	mov    $0x0,%eax
    2962:	e8 49 ea ff ff       	callq  13b0 <__printf_chk@plt>
    2967:	eb ae                	jmp    2917 <launch+0x88>
    2969:	48 8d 3d f1 1b 00 00 	lea    0x1bf1(%rip),%rdi        # 4561 <_IO_stdin_used+0x561>
    2970:	e8 2b e9 ff ff       	callq  12a0 <puts@plt>
    2975:	b8 00 00 00 00       	mov    $0x0,%eax
    297a:	e8 f4 f9 ff ff       	callq  2373 <check_fail>
    297f:	e8 3c e9 ff ff       	callq  12c0 <__stack_chk_fail@plt>

0000000000002984 <stable_launch>:
    2984:	f3 0f 1e fa          	endbr64 
    2988:	53                   	push   %rbx
    2989:	48 89 3d 38 4a 00 00 	mov    %rdi,0x4a38(%rip)        # 73c8 <global_offset>
    2990:	41 b9 00 00 00 00    	mov    $0x0,%r9d
    2996:	41 b8 00 00 00 00    	mov    $0x0,%r8d
    299c:	b9 32 01 00 00       	mov    $0x132,%ecx
    29a1:	ba 07 00 00 00       	mov    $0x7,%edx
    29a6:	be 00 00 10 00       	mov    $0x100000,%esi
    29ab:	bf 00 60 58 55       	mov    $0x55586000,%edi
    29b0:	e8 1b e9 ff ff       	callq  12d0 <mmap@plt>
    29b5:	48 89 c3             	mov    %rax,%rbx
    29b8:	48 3d 00 60 58 55    	cmp    $0x55586000,%rax
    29be:	75 43                	jne    2a03 <stable_launch+0x7f>
    29c0:	48 8d 90 f8 ff 0f 00 	lea    0xffff8(%rax),%rdx
    29c7:	48 89 15 42 56 00 00 	mov    %rdx,0x5642(%rip)        # 8010 <stack_top>
    29ce:	48 89 e0             	mov    %rsp,%rax
    29d1:	48 89 d4             	mov    %rdx,%rsp
    29d4:	48 89 c2             	mov    %rax,%rdx
    29d7:	48 89 15 e2 49 00 00 	mov    %rdx,0x49e2(%rip)        # 73c0 <global_save_stack>
    29de:	48 8b 3d e3 49 00 00 	mov    0x49e3(%rip),%rdi        # 73c8 <global_offset>
    29e5:	e8 a5 fe ff ff       	callq  288f <launch>
    29ea:	48 8b 05 cf 49 00 00 	mov    0x49cf(%rip),%rax        # 73c0 <global_save_stack>
    29f1:	48 89 c4             	mov    %rax,%rsp
    29f4:	be 00 00 10 00       	mov    $0x100000,%esi
    29f9:	48 89 df             	mov    %rbx,%rdi
    29fc:	e8 9f e9 ff ff       	callq  13a0 <munmap@plt>
    2a01:	5b                   	pop    %rbx
    2a02:	c3                   	retq   
    2a03:	be 00 00 10 00       	mov    $0x100000,%esi
    2a08:	48 89 c7             	mov    %rax,%rdi
    2a0b:	e8 90 e9 ff ff       	callq  13a0 <munmap@plt>
    2a10:	b9 00 60 58 55       	mov    $0x55586000,%ecx
    2a15:	48 8d 15 04 1d 00 00 	lea    0x1d04(%rip),%rdx        # 4720 <_IO_stdin_used+0x720>
    2a1c:	be 01 00 00 00       	mov    $0x1,%esi
    2a21:	48 8b 3d 78 49 00 00 	mov    0x4978(%rip),%rdi        # 73a0 <stderr@@GLIBC_2.2.5>
    2a28:	b8 00 00 00 00       	mov    $0x0,%eax
    2a2d:	e8 ee e9 ff ff       	callq  1420 <__fprintf_chk@plt>
    2a32:	bf 01 00 00 00       	mov    $0x1,%edi
    2a37:	e8 c4 e9 ff ff       	callq  1400 <exit@plt>

0000000000002a3c <rio_readinitb>:
    2a3c:	89 37                	mov    %esi,(%rdi)
    2a3e:	c7 47 04 00 00 00 00 	movl   $0x0,0x4(%rdi)
    2a45:	48 8d 47 10          	lea    0x10(%rdi),%rax
    2a49:	48 89 47 08          	mov    %rax,0x8(%rdi)
    2a4d:	c3                   	retq   

0000000000002a4e <sigalrm_handler>:
    2a4e:	f3 0f 1e fa          	endbr64 
    2a52:	50                   	push   %rax
    2a53:	58                   	pop    %rax
    2a54:	48 83 ec 08          	sub    $0x8,%rsp
    2a58:	b9 00 00 00 00       	mov    $0x0,%ecx
    2a5d:	48 8d 15 fc 1c 00 00 	lea    0x1cfc(%rip),%rdx        # 4760 <trans_char+0x10>
    2a64:	be 01 00 00 00       	mov    $0x1,%esi
    2a69:	48 8b 3d 30 49 00 00 	mov    0x4930(%rip),%rdi        # 73a0 <stderr@@GLIBC_2.2.5>
    2a70:	b8 00 00 00 00       	mov    $0x0,%eax
    2a75:	e8 a6 e9 ff ff       	callq  1420 <__fprintf_chk@plt>
    2a7a:	bf 01 00 00 00       	mov    $0x1,%edi
    2a7f:	e8 7c e9 ff ff       	callq  1400 <exit@plt>

0000000000002a84 <rio_writen>:
    2a84:	41 55                	push   %r13
    2a86:	41 54                	push   %r12
    2a88:	55                   	push   %rbp
    2a89:	53                   	push   %rbx
    2a8a:	48 83 ec 08          	sub    $0x8,%rsp
    2a8e:	41 89 fc             	mov    %edi,%r12d
    2a91:	48 89 f5             	mov    %rsi,%rbp
    2a94:	49 89 d5             	mov    %rdx,%r13
    2a97:	48 89 d3             	mov    %rdx,%rbx
    2a9a:	eb 06                	jmp    2aa2 <rio_writen+0x1e>
    2a9c:	48 29 c3             	sub    %rax,%rbx
    2a9f:	48 01 c5             	add    %rax,%rbp
    2aa2:	48 85 db             	test   %rbx,%rbx
    2aa5:	74 24                	je     2acb <rio_writen+0x47>
    2aa7:	48 89 da             	mov    %rbx,%rdx
    2aaa:	48 89 ee             	mov    %rbp,%rsi
    2aad:	44 89 e7             	mov    %r12d,%edi
    2ab0:	e8 fb e7 ff ff       	callq  12b0 <write@plt>
    2ab5:	48 85 c0             	test   %rax,%rax
    2ab8:	7f e2                	jg     2a9c <rio_writen+0x18>
    2aba:	e8 a1 e7 ff ff       	callq  1260 <__errno_location@plt>
    2abf:	83 38 04             	cmpl   $0x4,(%rax)
    2ac2:	75 15                	jne    2ad9 <rio_writen+0x55>
    2ac4:	b8 00 00 00 00       	mov    $0x0,%eax
    2ac9:	eb d1                	jmp    2a9c <rio_writen+0x18>
    2acb:	4c 89 e8             	mov    %r13,%rax
    2ace:	48 83 c4 08          	add    $0x8,%rsp
    2ad2:	5b                   	pop    %rbx
    2ad3:	5d                   	pop    %rbp
    2ad4:	41 5c                	pop    %r12
    2ad6:	41 5d                	pop    %r13
    2ad8:	c3                   	retq   
    2ad9:	48 c7 c0 ff ff ff ff 	mov    $0xffffffffffffffff,%rax
    2ae0:	eb ec                	jmp    2ace <rio_writen+0x4a>

0000000000002ae2 <rio_read>:
    2ae2:	41 55                	push   %r13
    2ae4:	41 54                	push   %r12
    2ae6:	55                   	push   %rbp
    2ae7:	53                   	push   %rbx
    2ae8:	48 83 ec 08          	sub    $0x8,%rsp
    2aec:	48 89 fb             	mov    %rdi,%rbx
    2aef:	49 89 f5             	mov    %rsi,%r13
    2af2:	49 89 d4             	mov    %rdx,%r12
    2af5:	eb 17                	jmp    2b0e <rio_read+0x2c>
    2af7:	e8 64 e7 ff ff       	callq  1260 <__errno_location@plt>
    2afc:	83 38 04             	cmpl   $0x4,(%rax)
    2aff:	74 0d                	je     2b0e <rio_read+0x2c>
    2b01:	48 c7 c0 ff ff ff ff 	mov    $0xffffffffffffffff,%rax
    2b08:	eb 54                	jmp    2b5e <rio_read+0x7c>
    2b0a:	48 89 6b 08          	mov    %rbp,0x8(%rbx)
    2b0e:	8b 6b 04             	mov    0x4(%rbx),%ebp
    2b11:	85 ed                	test   %ebp,%ebp
    2b13:	7f 23                	jg     2b38 <rio_read+0x56>
    2b15:	48 8d 6b 10          	lea    0x10(%rbx),%rbp
    2b19:	8b 3b                	mov    (%rbx),%edi
    2b1b:	ba 00 20 00 00       	mov    $0x2000,%edx
    2b20:	48 89 ee             	mov    %rbp,%rsi
    2b23:	e8 e8 e7 ff ff       	callq  1310 <read@plt>
    2b28:	89 43 04             	mov    %eax,0x4(%rbx)
    2b2b:	85 c0                	test   %eax,%eax
    2b2d:	78 c8                	js     2af7 <rio_read+0x15>
    2b2f:	75 d9                	jne    2b0a <rio_read+0x28>
    2b31:	b8 00 00 00 00       	mov    $0x0,%eax
    2b36:	eb 26                	jmp    2b5e <rio_read+0x7c>
    2b38:	89 e8                	mov    %ebp,%eax
    2b3a:	4c 39 e0             	cmp    %r12,%rax
    2b3d:	72 03                	jb     2b42 <rio_read+0x60>
    2b3f:	44 89 e5             	mov    %r12d,%ebp
    2b42:	4c 63 e5             	movslq %ebp,%r12
    2b45:	48 8b 73 08          	mov    0x8(%rbx),%rsi
    2b49:	4c 89 e2             	mov    %r12,%rdx
    2b4c:	4c 89 ef             	mov    %r13,%rdi
    2b4f:	e8 0c e8 ff ff       	callq  1360 <memcpy@plt>
    2b54:	4c 01 63 08          	add    %r12,0x8(%rbx)
    2b58:	29 6b 04             	sub    %ebp,0x4(%rbx)
    2b5b:	4c 89 e0             	mov    %r12,%rax
    2b5e:	48 83 c4 08          	add    $0x8,%rsp
    2b62:	5b                   	pop    %rbx
    2b63:	5d                   	pop    %rbp
    2b64:	41 5c                	pop    %r12
    2b66:	41 5d                	pop    %r13
    2b68:	c3                   	retq   

0000000000002b69 <rio_readlineb>:
    2b69:	41 55                	push   %r13
    2b6b:	41 54                	push   %r12
    2b6d:	55                   	push   %rbp
    2b6e:	53                   	push   %rbx
    2b6f:	48 83 ec 18          	sub    $0x18,%rsp
    2b73:	49 89 fd             	mov    %rdi,%r13
    2b76:	48 89 f5             	mov    %rsi,%rbp
    2b79:	49 89 d4             	mov    %rdx,%r12
    2b7c:	64 48 8b 04 25 28 00 	mov    %fs:0x28,%rax
    2b83:	00 00 
    2b85:	48 89 44 24 08       	mov    %rax,0x8(%rsp)
    2b8a:	31 c0                	xor    %eax,%eax
    2b8c:	bb 01 00 00 00       	mov    $0x1,%ebx
    2b91:	eb 18                	jmp    2bab <rio_readlineb+0x42>
    2b93:	85 c0                	test   %eax,%eax
    2b95:	75 65                	jne    2bfc <rio_readlineb+0x93>
    2b97:	48 83 fb 01          	cmp    $0x1,%rbx
    2b9b:	75 3d                	jne    2bda <rio_readlineb+0x71>
    2b9d:	b8 00 00 00 00       	mov    $0x0,%eax
    2ba2:	eb 3d                	jmp    2be1 <rio_readlineb+0x78>
    2ba4:	48 83 c3 01          	add    $0x1,%rbx
    2ba8:	48 89 d5             	mov    %rdx,%rbp
    2bab:	4c 39 e3             	cmp    %r12,%rbx
    2bae:	73 2a                	jae    2bda <rio_readlineb+0x71>
    2bb0:	48 8d 74 24 07       	lea    0x7(%rsp),%rsi
    2bb5:	ba 01 00 00 00       	mov    $0x1,%edx
    2bba:	4c 89 ef             	mov    %r13,%rdi
    2bbd:	e8 20 ff ff ff       	callq  2ae2 <rio_read>
    2bc2:	83 f8 01             	cmp    $0x1,%eax
    2bc5:	75 cc                	jne    2b93 <rio_readlineb+0x2a>
    2bc7:	48 8d 55 01          	lea    0x1(%rbp),%rdx
    2bcb:	0f b6 44 24 07       	movzbl 0x7(%rsp),%eax
    2bd0:	88 45 00             	mov    %al,0x0(%rbp)
    2bd3:	3c 0a                	cmp    $0xa,%al
    2bd5:	75 cd                	jne    2ba4 <rio_readlineb+0x3b>
    2bd7:	48 89 d5             	mov    %rdx,%rbp
    2bda:	c6 45 00 00          	movb   $0x0,0x0(%rbp)
    2bde:	48 89 d8             	mov    %rbx,%rax
    2be1:	48 8b 4c 24 08       	mov    0x8(%rsp),%rcx
    2be6:	64 48 33 0c 25 28 00 	xor    %fs:0x28,%rcx
    2bed:	00 00 
    2bef:	75 14                	jne    2c05 <rio_readlineb+0x9c>
    2bf1:	48 83 c4 18          	add    $0x18,%rsp
    2bf5:	5b                   	pop    %rbx
    2bf6:	5d                   	pop    %rbp
    2bf7:	41 5c                	pop    %r12
    2bf9:	41 5d                	pop    %r13
    2bfb:	c3                   	retq   
    2bfc:	48 c7 c0 ff ff ff ff 	mov    $0xffffffffffffffff,%rax
    2c03:	eb dc                	jmp    2be1 <rio_readlineb+0x78>
    2c05:	e8 b6 e6 ff ff       	callq  12c0 <__stack_chk_fail@plt>

0000000000002c0a <urlencode>:
    2c0a:	41 54                	push   %r12
    2c0c:	55                   	push   %rbp
    2c0d:	53                   	push   %rbx
    2c0e:	48 83 ec 10          	sub    $0x10,%rsp
    2c12:	48 89 fb             	mov    %rdi,%rbx
    2c15:	48 89 f5             	mov    %rsi,%rbp
    2c18:	64 48 8b 04 25 28 00 	mov    %fs:0x28,%rax
    2c1f:	00 00 
    2c21:	48 89 44 24 08       	mov    %rax,0x8(%rsp)
    2c26:	31 c0                	xor    %eax,%eax
    2c28:	48 c7 c1 ff ff ff ff 	mov    $0xffffffffffffffff,%rcx
    2c2f:	f2 ae                	repnz scas %es:(%rdi),%al
    2c31:	48 f7 d1             	not    %rcx
    2c34:	8d 41 ff             	lea    -0x1(%rcx),%eax
    2c37:	eb 0f                	jmp    2c48 <urlencode+0x3e>
    2c39:	44 88 45 00          	mov    %r8b,0x0(%rbp)
    2c3d:	48 8d 6d 01          	lea    0x1(%rbp),%rbp
    2c41:	48 83 c3 01          	add    $0x1,%rbx
    2c45:	44 89 e0             	mov    %r12d,%eax
    2c48:	44 8d 60 ff          	lea    -0x1(%rax),%r12d
    2c4c:	85 c0                	test   %eax,%eax
    2c4e:	0f 84 a8 00 00 00    	je     2cfc <urlencode+0xf2>
    2c54:	44 0f b6 03          	movzbl (%rbx),%r8d
    2c58:	41 80 f8 2a          	cmp    $0x2a,%r8b
    2c5c:	0f 94 c2             	sete   %dl
    2c5f:	41 80 f8 2d          	cmp    $0x2d,%r8b
    2c63:	0f 94 c0             	sete   %al
    2c66:	08 c2                	or     %al,%dl
    2c68:	75 cf                	jne    2c39 <urlencode+0x2f>
    2c6a:	41 80 f8 2e          	cmp    $0x2e,%r8b
    2c6e:	74 c9                	je     2c39 <urlencode+0x2f>
    2c70:	41 80 f8 5f          	cmp    $0x5f,%r8b
    2c74:	74 c3                	je     2c39 <urlencode+0x2f>
    2c76:	41 8d 40 d0          	lea    -0x30(%r8),%eax
    2c7a:	3c 09                	cmp    $0x9,%al
    2c7c:	76 bb                	jbe    2c39 <urlencode+0x2f>
    2c7e:	41 8d 40 bf          	lea    -0x41(%r8),%eax
    2c82:	3c 19                	cmp    $0x19,%al
    2c84:	76 b3                	jbe    2c39 <urlencode+0x2f>
    2c86:	41 8d 40 9f          	lea    -0x61(%r8),%eax
    2c8a:	3c 19                	cmp    $0x19,%al
    2c8c:	76 ab                	jbe    2c39 <urlencode+0x2f>
    2c8e:	41 80 f8 20          	cmp    $0x20,%r8b
    2c92:	74 56                	je     2cea <urlencode+0xe0>
    2c94:	41 8d 40 e0          	lea    -0x20(%r8),%eax
    2c98:	3c 5f                	cmp    $0x5f,%al
    2c9a:	0f 96 c2             	setbe  %dl
    2c9d:	41 80 f8 09          	cmp    $0x9,%r8b
    2ca1:	0f 94 c0             	sete   %al
    2ca4:	08 c2                	or     %al,%dl
    2ca6:	74 4f                	je     2cf7 <urlencode+0xed>
    2ca8:	48 89 e7             	mov    %rsp,%rdi
    2cab:	45 0f b6 c0          	movzbl %r8b,%r8d
    2caf:	48 8d 0d 3f 1b 00 00 	lea    0x1b3f(%rip),%rcx        # 47f5 <trans_char+0xa5>
    2cb6:	ba 08 00 00 00       	mov    $0x8,%edx
    2cbb:	be 01 00 00 00       	mov    $0x1,%esi
    2cc0:	b8 00 00 00 00       	mov    $0x0,%eax
    2cc5:	e8 76 e7 ff ff       	callq  1440 <__sprintf_chk@plt>
    2cca:	0f b6 04 24          	movzbl (%rsp),%eax
    2cce:	88 45 00             	mov    %al,0x0(%rbp)
    2cd1:	0f b6 44 24 01       	movzbl 0x1(%rsp),%eax
    2cd6:	88 45 01             	mov    %al,0x1(%rbp)
    2cd9:	0f b6 44 24 02       	movzbl 0x2(%rsp),%eax
    2cde:	88 45 02             	mov    %al,0x2(%rbp)
    2ce1:	48 8d 6d 03          	lea    0x3(%rbp),%rbp
    2ce5:	e9 57 ff ff ff       	jmpq   2c41 <urlencode+0x37>
    2cea:	c6 45 00 2b          	movb   $0x2b,0x0(%rbp)
    2cee:	48 8d 6d 01          	lea    0x1(%rbp),%rbp
    2cf2:	e9 4a ff ff ff       	jmpq   2c41 <urlencode+0x37>
    2cf7:	b8 ff ff ff ff       	mov    $0xffffffff,%eax
    2cfc:	48 8b 74 24 08       	mov    0x8(%rsp),%rsi
    2d01:	64 48 33 34 25 28 00 	xor    %fs:0x28,%rsi
    2d08:	00 00 
    2d0a:	75 09                	jne    2d15 <urlencode+0x10b>
    2d0c:	48 83 c4 10          	add    $0x10,%rsp
    2d10:	5b                   	pop    %rbx
    2d11:	5d                   	pop    %rbp
    2d12:	41 5c                	pop    %r12
    2d14:	c3                   	retq   
    2d15:	e8 a6 e5 ff ff       	callq  12c0 <__stack_chk_fail@plt>

0000000000002d1a <submitr>:
    2d1a:	f3 0f 1e fa          	endbr64 
    2d1e:	41 57                	push   %r15
    2d20:	41 56                	push   %r14
    2d22:	41 55                	push   %r13
    2d24:	41 54                	push   %r12
    2d26:	55                   	push   %rbp
    2d27:	53                   	push   %rbx
    2d28:	4c 8d 9c 24 00 60 ff 	lea    -0xa000(%rsp),%r11
    2d2f:	ff 
    2d30:	48 81 ec 00 10 00 00 	sub    $0x1000,%rsp
    2d37:	48 83 0c 24 00       	orq    $0x0,(%rsp)
    2d3c:	4c 39 dc             	cmp    %r11,%rsp
    2d3f:	75 ef                	jne    2d30 <submitr+0x16>
    2d41:	48 83 ec 68          	sub    $0x68,%rsp
    2d45:	49 89 fc             	mov    %rdi,%r12
    2d48:	89 74 24 14          	mov    %esi,0x14(%rsp)
    2d4c:	49 89 d6             	mov    %rdx,%r14
    2d4f:	48 89 4c 24 08       	mov    %rcx,0x8(%rsp)
    2d54:	4c 89 44 24 18       	mov    %r8,0x18(%rsp)
    2d59:	4d 89 cd             	mov    %r9,%r13
    2d5c:	48 8b ac 24 a0 a0 00 	mov    0xa0a0(%rsp),%rbp
    2d63:	00 
    2d64:	64 48 8b 04 25 28 00 	mov    %fs:0x28,%rax
    2d6b:	00 00 
    2d6d:	48 89 84 24 58 a0 00 	mov    %rax,0xa058(%rsp)
    2d74:	00 
    2d75:	31 c0                	xor    %eax,%eax
    2d77:	c7 44 24 2c 00 00 00 	movl   $0x0,0x2c(%rsp)
    2d7e:	00 
    2d7f:	ba 00 00 00 00       	mov    $0x0,%edx
    2d84:	be 01 00 00 00       	mov    $0x1,%esi
    2d89:	bf 02 00 00 00       	mov    $0x2,%edi
    2d8e:	e8 bd e6 ff ff       	callq  1450 <socket@plt>
    2d93:	85 c0                	test   %eax,%eax
    2d95:	0f 88 a0 02 00 00    	js     303b <submitr+0x321>
    2d9b:	89 c3                	mov    %eax,%ebx
    2d9d:	4c 89 e7             	mov    %r12,%rdi
    2da0:	e8 8b e5 ff ff       	callq  1330 <gethostbyname@plt>
    2da5:	48 85 c0             	test   %rax,%rax
    2da8:	0f 84 d9 02 00 00    	je     3087 <submitr+0x36d>
    2dae:	4c 8d 7c 24 30       	lea    0x30(%rsp),%r15
    2db3:	48 c7 44 24 30 00 00 	movq   $0x0,0x30(%rsp)
    2dba:	00 00 
    2dbc:	48 c7 44 24 38 00 00 	movq   $0x0,0x38(%rsp)
    2dc3:	00 00 
    2dc5:	66 c7 44 24 30 02 00 	movw   $0x2,0x30(%rsp)
    2dcc:	48 63 50 14          	movslq 0x14(%rax),%rdx
    2dd0:	48 8b 40 18          	mov    0x18(%rax),%rax
    2dd4:	48 8b 30             	mov    (%rax),%rsi
    2dd7:	48 8d 7c 24 34       	lea    0x34(%rsp),%rdi
    2ddc:	b9 0c 00 00 00       	mov    $0xc,%ecx
    2de1:	e8 5a e5 ff ff       	callq  1340 <__memmove_chk@plt>
    2de6:	0f b7 74 24 14       	movzwl 0x14(%rsp),%esi
    2deb:	66 c1 c6 08          	rol    $0x8,%si
    2def:	66 89 74 24 32       	mov    %si,0x32(%rsp)
    2df4:	ba 10 00 00 00       	mov    $0x10,%edx
    2df9:	4c 89 fe             	mov    %r15,%rsi
    2dfc:	89 df                	mov    %ebx,%edi
    2dfe:	e8 0d e6 ff ff       	callq  1410 <connect@plt>
    2e03:	85 c0                	test   %eax,%eax
    2e05:	0f 88 e4 02 00 00    	js     30ef <submitr+0x3d5>
    2e0b:	49 c7 c0 ff ff ff ff 	mov    $0xffffffffffffffff,%r8
    2e12:	b8 00 00 00 00       	mov    $0x0,%eax
    2e17:	4c 89 c1             	mov    %r8,%rcx
    2e1a:	4c 89 ef             	mov    %r13,%rdi
    2e1d:	f2 ae                	repnz scas %es:(%rdi),%al
    2e1f:	48 89 ca             	mov    %rcx,%rdx
    2e22:	48 f7 d2             	not    %rdx
    2e25:	4c 89 c1             	mov    %r8,%rcx
    2e28:	4c 89 f7             	mov    %r14,%rdi
    2e2b:	f2 ae                	repnz scas %es:(%rdi),%al
    2e2d:	48 f7 d1             	not    %rcx
    2e30:	48 89 ce             	mov    %rcx,%rsi
    2e33:	4c 89 c1             	mov    %r8,%rcx
    2e36:	48 8b 7c 24 08       	mov    0x8(%rsp),%rdi
    2e3b:	f2 ae                	repnz scas %es:(%rdi),%al
    2e3d:	48 f7 d1             	not    %rcx
    2e40:	48 8d 74 0e fe       	lea    -0x2(%rsi,%rcx,1),%rsi
    2e45:	4c 89 c1             	mov    %r8,%rcx
    2e48:	48 8b 7c 24 18       	mov    0x18(%rsp),%rdi
    2e4d:	f2 ae                	repnz scas %es:(%rdi),%al
    2e4f:	48 89 c8             	mov    %rcx,%rax
    2e52:	48 f7 d0             	not    %rax
    2e55:	48 8d 4c 06 ff       	lea    -0x1(%rsi,%rax,1),%rcx
    2e5a:	48 8d 44 52 fd       	lea    -0x3(%rdx,%rdx,2),%rax
    2e5f:	48 8d 84 01 80 00 00 	lea    0x80(%rcx,%rax,1),%rax
    2e66:	00 
    2e67:	48 3d 00 20 00 00    	cmp    $0x2000,%rax
    2e6d:	0f 87 d6 02 00 00    	ja     3149 <submitr+0x42f>
    2e73:	48 8d b4 24 50 40 00 	lea    0x4050(%rsp),%rsi
    2e7a:	00 
    2e7b:	b9 00 04 00 00       	mov    $0x400,%ecx
    2e80:	b8 00 00 00 00       	mov    $0x0,%eax
    2e85:	48 89 f7             	mov    %rsi,%rdi
    2e88:	f3 48 ab             	rep stos %rax,%es:(%rdi)
    2e8b:	4c 89 ef             	mov    %r13,%rdi
    2e8e:	e8 77 fd ff ff       	callq  2c0a <urlencode>
    2e93:	85 c0                	test   %eax,%eax
    2e95:	0f 88 21 03 00 00    	js     31bc <submitr+0x4a2>
    2e9b:	4c 8d bc 24 50 20 00 	lea    0x2050(%rsp),%r15
    2ea2:	00 
    2ea3:	41 54                	push   %r12
    2ea5:	48 8d 84 24 58 40 00 	lea    0x4058(%rsp),%rax
    2eac:	00 
    2ead:	50                   	push   %rax
    2eae:	4d 89 f1             	mov    %r14,%r9
    2eb1:	4c 8b 44 24 18       	mov    0x18(%rsp),%r8
    2eb6:	48 8d 0d cb 18 00 00 	lea    0x18cb(%rip),%rcx        # 4788 <trans_char+0x38>
    2ebd:	ba 00 20 00 00       	mov    $0x2000,%edx
    2ec2:	be 01 00 00 00       	mov    $0x1,%esi
    2ec7:	4c 89 ff             	mov    %r15,%rdi
    2eca:	b8 00 00 00 00       	mov    $0x0,%eax
    2ecf:	e8 6c e5 ff ff       	callq  1440 <__sprintf_chk@plt>
    2ed4:	48 c7 c1 ff ff ff ff 	mov    $0xffffffffffffffff,%rcx
    2edb:	b8 00 00 00 00       	mov    $0x0,%eax
    2ee0:	4c 89 ff             	mov    %r15,%rdi
    2ee3:	f2 ae                	repnz scas %es:(%rdi),%al
    2ee5:	48 f7 d1             	not    %rcx
    2ee8:	48 8d 51 ff          	lea    -0x1(%rcx),%rdx
    2eec:	4c 89 fe             	mov    %r15,%rsi
    2eef:	89 df                	mov    %ebx,%edi
    2ef1:	e8 8e fb ff ff       	callq  2a84 <rio_writen>
    2ef6:	48 83 c4 10          	add    $0x10,%rsp
    2efa:	48 85 c0             	test   %rax,%rax
    2efd:	0f 88 44 03 00 00    	js     3247 <submitr+0x52d>
    2f03:	4c 8d 64 24 40       	lea    0x40(%rsp),%r12
    2f08:	89 de                	mov    %ebx,%esi
    2f0a:	4c 89 e7             	mov    %r12,%rdi
    2f0d:	e8 2a fb ff ff       	callq  2a3c <rio_readinitb>
    2f12:	48 8d b4 24 50 20 00 	lea    0x2050(%rsp),%rsi
    2f19:	00 
    2f1a:	ba 00 20 00 00       	mov    $0x2000,%edx
    2f1f:	4c 89 e7             	mov    %r12,%rdi
    2f22:	e8 42 fc ff ff       	callq  2b69 <rio_readlineb>
    2f27:	48 85 c0             	test   %rax,%rax
    2f2a:	0f 8e 86 03 00 00    	jle    32b6 <submitr+0x59c>
    2f30:	48 8d 4c 24 2c       	lea    0x2c(%rsp),%rcx
    2f35:	48 8d 94 24 50 60 00 	lea    0x6050(%rsp),%rdx
    2f3c:	00 
    2f3d:	48 8d bc 24 50 20 00 	lea    0x2050(%rsp),%rdi
    2f44:	00 
    2f45:	4c 8d 84 24 50 80 00 	lea    0x8050(%rsp),%r8
    2f4c:	00 
    2f4d:	48 8d 35 a8 18 00 00 	lea    0x18a8(%rip),%rsi        # 47fc <trans_char+0xac>
    2f54:	b8 00 00 00 00       	mov    $0x0,%eax
    2f59:	e8 32 e4 ff ff       	callq  1390 <__isoc99_sscanf@plt>
    2f5e:	48 8d b4 24 50 20 00 	lea    0x2050(%rsp),%rsi
    2f65:	00 
    2f66:	b9 03 00 00 00       	mov    $0x3,%ecx
    2f6b:	48 8d 3d a1 18 00 00 	lea    0x18a1(%rip),%rdi        # 4813 <trans_char+0xc3>
    2f72:	f3 a6                	repz cmpsb %es:(%rdi),%ds:(%rsi)
    2f74:	0f 97 c0             	seta   %al
    2f77:	1c 00                	sbb    $0x0,%al
    2f79:	84 c0                	test   %al,%al
    2f7b:	0f 84 b3 03 00 00    	je     3334 <submitr+0x61a>
    2f81:	48 8d b4 24 50 20 00 	lea    0x2050(%rsp),%rsi
    2f88:	00 
    2f89:	48 8d 7c 24 40       	lea    0x40(%rsp),%rdi
    2f8e:	ba 00 20 00 00       	mov    $0x2000,%edx
    2f93:	e8 d1 fb ff ff       	callq  2b69 <rio_readlineb>
    2f98:	48 85 c0             	test   %rax,%rax
    2f9b:	7f c1                	jg     2f5e <submitr+0x244>
    2f9d:	48 b8 45 72 72 6f 72 	movabs $0x43203a726f727245,%rax
    2fa4:	3a 20 43 
    2fa7:	48 ba 6c 69 65 6e 74 	movabs $0x6e7520746e65696c,%rdx
    2fae:	20 75 6e 
    2fb1:	48 89 45 00          	mov    %rax,0x0(%rbp)
    2fb5:	48 89 55 08          	mov    %rdx,0x8(%rbp)
    2fb9:	48 b8 61 62 6c 65 20 	movabs $0x206f7420656c6261,%rax
    2fc0:	74 6f 20 
    2fc3:	48 ba 72 65 61 64 20 	movabs $0x6165682064616572,%rdx
    2fca:	68 65 61 
    2fcd:	48 89 45 10          	mov    %rax,0x10(%rbp)
    2fd1:	48 89 55 18          	mov    %rdx,0x18(%rbp)
    2fd5:	48 b8 64 65 72 73 20 	movabs $0x6f72662073726564,%rax
    2fdc:	66 72 6f 
    2fdf:	48 ba 6d 20 74 68 65 	movabs $0x657220656874206d,%rdx
    2fe6:	20 72 65 
    2fe9:	48 89 45 20          	mov    %rax,0x20(%rbp)
    2fed:	48 89 55 28          	mov    %rdx,0x28(%rbp)
    2ff1:	48 b8 73 75 6c 74 20 	movabs $0x72657320746c7573,%rax
    2ff8:	73 65 72 
    2ffb:	48 89 45 30          	mov    %rax,0x30(%rbp)
    2fff:	c7 45 38 76 65 72 00 	movl   $0x726576,0x38(%rbp)
    3006:	89 df                	mov    %ebx,%edi
    3008:	e8 f3 e2 ff ff       	callq  1300 <close@plt>
    300d:	b8 ff ff ff ff       	mov    $0xffffffff,%eax
    3012:	48 8b 9c 24 58 a0 00 	mov    0xa058(%rsp),%rbx
    3019:	00 
    301a:	64 48 33 1c 25 28 00 	xor    %fs:0x28,%rbx
    3021:	00 00 
    3023:	0f 85 7e 04 00 00    	jne    34a7 <submitr+0x78d>
    3029:	48 81 c4 68 a0 00 00 	add    $0xa068,%rsp
    3030:	5b                   	pop    %rbx
    3031:	5d                   	pop    %rbp
    3032:	41 5c                	pop    %r12
    3034:	41 5d                	pop    %r13
    3036:	41 5e                	pop    %r14
    3038:	41 5f                	pop    %r15
    303a:	c3                   	retq   
    303b:	48 b8 45 72 72 6f 72 	movabs $0x43203a726f727245,%rax
    3042:	3a 20 43 
    3045:	48 ba 6c 69 65 6e 74 	movabs $0x6e7520746e65696c,%rdx
    304c:	20 75 6e 
    304f:	48 89 45 00          	mov    %rax,0x0(%rbp)
    3053:	48 89 55 08          	mov    %rdx,0x8(%rbp)
    3057:	48 b8 61 62 6c 65 20 	movabs $0x206f7420656c6261,%rax
    305e:	74 6f 20 
    3061:	48 ba 63 72 65 61 74 	movabs $0x7320657461657263,%rdx
    3068:	65 20 73 
    306b:	48 89 45 10          	mov    %rax,0x10(%rbp)
    306f:	48 89 55 18          	mov    %rdx,0x18(%rbp)
    3073:	c7 45 20 6f 63 6b 65 	movl   $0x656b636f,0x20(%rbp)
    307a:	66 c7 45 24 74 00    	movw   $0x74,0x24(%rbp)
    3080:	b8 ff ff ff ff       	mov    $0xffffffff,%eax
    3085:	eb 8b                	jmp    3012 <submitr+0x2f8>
    3087:	48 b8 45 72 72 6f 72 	movabs $0x44203a726f727245,%rax
    308e:	3a 20 44 
    3091:	48 ba 4e 53 20 69 73 	movabs $0x6e7520736920534e,%rdx
    3098:	20 75 6e 
    309b:	48 89 45 00          	mov    %rax,0x0(%rbp)
    309f:	48 89 55 08          	mov    %rdx,0x8(%rbp)
    30a3:	48 b8 61 62 6c 65 20 	movabs $0x206f7420656c6261,%rax
    30aa:	74 6f 20 
    30ad:	48 ba 72 65 73 6f 6c 	movabs $0x2065766c6f736572,%rdx
    30b4:	76 65 20 
    30b7:	48 89 45 10          	mov    %rax,0x10(%rbp)
    30bb:	48 89 55 18          	mov    %rdx,0x18(%rbp)
    30bf:	48 b8 73 65 72 76 65 	movabs $0x6120726576726573,%rax
    30c6:	72 20 61 
    30c9:	48 89 45 20          	mov    %rax,0x20(%rbp)
    30cd:	c7 45 28 64 64 72 65 	movl   $0x65726464,0x28(%rbp)
    30d4:	66 c7 45 2c 73 73    	movw   $0x7373,0x2c(%rbp)
    30da:	c6 45 2e 00          	movb   $0x0,0x2e(%rbp)
    30de:	89 df                	mov    %ebx,%edi
    30e0:	e8 1b e2 ff ff       	callq  1300 <close@plt>
    30e5:	b8 ff ff ff ff       	mov    $0xffffffff,%eax
    30ea:	e9 23 ff ff ff       	jmpq   3012 <submitr+0x2f8>
    30ef:	48 b8 45 72 72 6f 72 	movabs $0x55203a726f727245,%rax
    30f6:	3a 20 55 
    30f9:	48 ba 6e 61 62 6c 65 	movabs $0x6f7420656c62616e,%rdx
    3100:	20 74 6f 
    3103:	48 89 45 00          	mov    %rax,0x0(%rbp)
    3107:	48 89 55 08          	mov    %rdx,0x8(%rbp)
    310b:	48 b8 20 63 6f 6e 6e 	movabs $0x7463656e6e6f6320,%rax
    3112:	65 63 74 
    3115:	48 ba 20 74 6f 20 74 	movabs $0x20656874206f7420,%rdx
    311c:	68 65 20 
    311f:	48 89 45 10          	mov    %rax,0x10(%rbp)
    3123:	48 89 55 18          	mov    %rdx,0x18(%rbp)
    3127:	c7 45 20 73 65 72 76 	movl   $0x76726573,0x20(%rbp)
    312e:	66 c7 45 24 65 72    	movw   $0x7265,0x24(%rbp)
    3134:	c6 45 26 00          	movb   $0x0,0x26(%rbp)
    3138:	89 df                	mov    %ebx,%edi
    313a:	e8 c1 e1 ff ff       	callq  1300 <close@plt>
    313f:	b8 ff ff ff ff       	mov    $0xffffffff,%eax
    3144:	e9 c9 fe ff ff       	jmpq   3012 <submitr+0x2f8>
    3149:	48 b8 45 72 72 6f 72 	movabs $0x52203a726f727245,%rax
    3150:	3a 20 52 
    3153:	48 ba 65 73 75 6c 74 	movabs $0x747320746c757365,%rdx
    315a:	20 73 74 
    315d:	48 89 45 00          	mov    %rax,0x0(%rbp)
    3161:	48 89 55 08          	mov    %rdx,0x8(%rbp)
    3165:	48 b8 72 69 6e 67 20 	movabs $0x6f6f7420676e6972,%rax
    316c:	74 6f 6f 
    316f:	48 ba 20 6c 61 72 67 	movabs $0x202e656772616c20,%rdx
    3176:	65 2e 20 
    3179:	48 89 45 10          	mov    %rax,0x10(%rbp)
    317d:	48 89 55 18          	mov    %rdx,0x18(%rbp)
    3181:	48 b8 49 6e 63 72 65 	movabs $0x6573616572636e49,%rax
    3188:	61 73 65 
    318b:	48 ba 20 53 55 42 4d 	movabs $0x5254494d42555320,%rdx
    3192:	49 54 52 
    3195:	48 89 45 20          	mov    %rax,0x20(%rbp)
    3199:	48 89 55 28          	mov    %rdx,0x28(%rbp)
    319d:	48 b8 5f 4d 41 58 42 	movabs $0x46554258414d5f,%rax
    31a4:	55 46 00 
    31a7:	48 89 45 30          	mov    %rax,0x30(%rbp)
    31ab:	89 df                	mov    %ebx,%edi
    31ad:	e8 4e e1 ff ff       	callq  1300 <close@plt>
    31b2:	b8 ff ff ff ff       	mov    $0xffffffff,%eax
    31b7:	e9 56 fe ff ff       	jmpq   3012 <submitr+0x2f8>
    31bc:	48 b8 45 72 72 6f 72 	movabs $0x52203a726f727245,%rax
    31c3:	3a 20 52 
    31c6:	48 ba 65 73 75 6c 74 	movabs $0x747320746c757365,%rdx
    31cd:	20 73 74 
    31d0:	48 89 45 00          	mov    %rax,0x0(%rbp)
    31d4:	48 89 55 08          	mov    %rdx,0x8(%rbp)
    31d8:	48 b8 72 69 6e 67 20 	movabs $0x6e6f6320676e6972,%rax
    31df:	63 6f 6e 
    31e2:	48 ba 74 61 69 6e 73 	movabs $0x6e6120736e696174,%rdx
    31e9:	20 61 6e 
    31ec:	48 89 45 10          	mov    %rax,0x10(%rbp)
    31f0:	48 89 55 18          	mov    %rdx,0x18(%rbp)
    31f4:	48 b8 20 69 6c 6c 65 	movabs $0x6c6167656c6c6920,%rax
    31fb:	67 61 6c 
    31fe:	48 ba 20 6f 72 20 75 	movabs $0x72706e7520726f20,%rdx
    3205:	6e 70 72 
    3208:	48 89 45 20          	mov    %rax,0x20(%rbp)
    320c:	48 89 55 28          	mov    %rdx,0x28(%rbp)
    3210:	48 b8 69 6e 74 61 62 	movabs $0x20656c6261746e69,%rax
    3217:	6c 65 20 
    321a:	48 ba 63 68 61 72 61 	movabs $0x6574636172616863,%rdx
    3221:	63 74 65 
    3224:	48 89 45 30          	mov    %rax,0x30(%rbp)
    3228:	48 89 55 38          	mov    %rdx,0x38(%rbp)
    322c:	66 c7 45 40 72 2e    	movw   $0x2e72,0x40(%rbp)
    3232:	c6 45 42 00          	movb   $0x0,0x42(%rbp)
    3236:	89 df                	mov    %ebx,%edi
    3238:	e8 c3 e0 ff ff       	callq  1300 <close@plt>
    323d:	b8 ff ff ff ff       	mov    $0xffffffff,%eax
    3242:	e9 cb fd ff ff       	jmpq   3012 <submitr+0x2f8>
    3247:	48 b8 45 72 72 6f 72 	movabs $0x43203a726f727245,%rax
    324e:	3a 20 43 
    3251:	48 ba 6c 69 65 6e 74 	movabs $0x6e7520746e65696c,%rdx
    3258:	20 75 6e 
    325b:	48 89 45 00          	mov    %rax,0x0(%rbp)
    325f:	48 89 55 08          	mov    %rdx,0x8(%rbp)
    3263:	48 b8 61 62 6c 65 20 	movabs $0x206f7420656c6261,%rax
    326a:	74 6f 20 
    326d:	48 ba 77 72 69 74 65 	movabs $0x6f74206574697277,%rdx
    3274:	20 74 6f 
    3277:	48 89 45 10          	mov    %rax,0x10(%rbp)
    327b:	48 89 55 18          	mov    %rdx,0x18(%rbp)
    327f:	48 b8 20 74 68 65 20 	movabs $0x7365722065687420,%rax
    3286:	72 65 73 
    3289:	48 ba 75 6c 74 20 73 	movabs $0x7672657320746c75,%rdx
    3290:	65 72 76 
    3293:	48 89 45 20          	mov    %rax,0x20(%rbp)
    3297:	48 89 55 28          	mov    %rdx,0x28(%rbp)
    329b:	66 c7 45 30 65 72    	movw   $0x7265,0x30(%rbp)
    32a1:	c6 45 32 00          	movb   $0x0,0x32(%rbp)
    32a5:	89 df                	mov    %ebx,%edi
    32a7:	e8 54 e0 ff ff       	callq  1300 <close@plt>
    32ac:	b8 ff ff ff ff       	mov    $0xffffffff,%eax
    32b1:	e9 5c fd ff ff       	jmpq   3012 <submitr+0x2f8>
    32b6:	48 b8 45 72 72 6f 72 	movabs $0x43203a726f727245,%rax
    32bd:	3a 20 43 
    32c0:	48 ba 6c 69 65 6e 74 	movabs $0x6e7520746e65696c,%rdx
    32c7:	20 75 6e 
    32ca:	48 89 45 00          	mov    %rax,0x0(%rbp)
    32ce:	48 89 55 08          	mov    %rdx,0x8(%rbp)
    32d2:	48 b8 61 62 6c 65 20 	movabs $0x206f7420656c6261,%rax
    32d9:	74 6f 20 
    32dc:	48 ba 72 65 61 64 20 	movabs $0x7269662064616572,%rdx
    32e3:	66 69 72 
    32e6:	48 89 45 10          	mov    %rax,0x10(%rbp)
    32ea:	48 89 55 18          	mov    %rdx,0x18(%rbp)
    32ee:	48 b8 73 74 20 68 65 	movabs $0x6564616568207473,%rax
    32f5:	61 64 65 
    32f8:	48 ba 72 20 66 72 6f 	movabs $0x72206d6f72662072,%rdx
    32ff:	6d 20 72 
    3302:	48 89 45 20          	mov    %rax,0x20(%rbp)
    3306:	48 89 55 28          	mov    %rdx,0x28(%rbp)
    330a:	48 b8 65 73 75 6c 74 	movabs $0x657320746c757365,%rax
    3311:	20 73 65 
    3314:	48 89 45 30          	mov    %rax,0x30(%rbp)
    3318:	c7 45 38 72 76 65 72 	movl   $0x72657672,0x38(%rbp)
    331f:	c6 45 3c 00          	movb   $0x0,0x3c(%rbp)
    3323:	89 df                	mov    %ebx,%edi
    3325:	e8 d6 df ff ff       	callq  1300 <close@plt>
    332a:	b8 ff ff ff ff       	mov    $0xffffffff,%eax
    332f:	e9 de fc ff ff       	jmpq   3012 <submitr+0x2f8>
    3334:	48 8d b4 24 50 20 00 	lea    0x2050(%rsp),%rsi
    333b:	00 
    333c:	48 8d 7c 24 40       	lea    0x40(%rsp),%rdi
    3341:	ba 00 20 00 00       	mov    $0x2000,%edx
    3346:	e8 1e f8 ff ff       	callq  2b69 <rio_readlineb>
    334b:	48 85 c0             	test   %rax,%rax
    334e:	0f 8e 96 00 00 00    	jle    33ea <submitr+0x6d0>
    3354:	44 8b 44 24 2c       	mov    0x2c(%rsp),%r8d
    3359:	41 81 f8 c8 00 00 00 	cmp    $0xc8,%r8d
    3360:	0f 85 08 01 00 00    	jne    346e <submitr+0x754>
    3366:	48 8d b4 24 50 20 00 	lea    0x2050(%rsp),%rsi
    336d:	00 
    336e:	48 89 ef             	mov    %rbp,%rdi
    3371:	e8 1a df ff ff       	callq  1290 <strcpy@plt>
    3376:	89 df                	mov    %ebx,%edi
    3378:	e8 83 df ff ff       	callq  1300 <close@plt>
    337d:	b9 04 00 00 00       	mov    $0x4,%ecx
    3382:	48 8d 3d 84 14 00 00 	lea    0x1484(%rip),%rdi        # 480d <trans_char+0xbd>
    3389:	48 89 ee             	mov    %rbp,%rsi
    338c:	f3 a6                	repz cmpsb %es:(%rdi),%ds:(%rsi)
    338e:	0f 97 c0             	seta   %al
    3391:	1c 00                	sbb    $0x0,%al
    3393:	0f be c0             	movsbl %al,%eax
    3396:	85 c0                	test   %eax,%eax
    3398:	0f 84 74 fc ff ff    	je     3012 <submitr+0x2f8>
    339e:	b9 05 00 00 00       	mov    $0x5,%ecx
    33a3:	48 8d 3d 67 14 00 00 	lea    0x1467(%rip),%rdi        # 4811 <trans_char+0xc1>
    33aa:	48 89 ee             	mov    %rbp,%rsi
    33ad:	f3 a6                	repz cmpsb %es:(%rdi),%ds:(%rsi)
    33af:	0f 97 c0             	seta   %al
    33b2:	1c 00                	sbb    $0x0,%al
    33b4:	0f be c0             	movsbl %al,%eax
    33b7:	85 c0                	test   %eax,%eax
    33b9:	0f 84 53 fc ff ff    	je     3012 <submitr+0x2f8>
    33bf:	b9 03 00 00 00       	mov    $0x3,%ecx
    33c4:	48 8d 3d 4b 14 00 00 	lea    0x144b(%rip),%rdi        # 4816 <trans_char+0xc6>
    33cb:	48 89 ee             	mov    %rbp,%rsi
    33ce:	f3 a6                	repz cmpsb %es:(%rdi),%ds:(%rsi)
    33d0:	0f 97 c0             	seta   %al
    33d3:	1c 00                	sbb    $0x0,%al
    33d5:	0f be c0             	movsbl %al,%eax
    33d8:	85 c0                	test   %eax,%eax
    33da:	0f 84 32 fc ff ff    	je     3012 <submitr+0x2f8>
    33e0:	b8 ff ff ff ff       	mov    $0xffffffff,%eax
    33e5:	e9 28 fc ff ff       	jmpq   3012 <submitr+0x2f8>
    33ea:	48 b8 45 72 72 6f 72 	movabs $0x43203a726f727245,%rax
    33f1:	3a 20 43 
    33f4:	48 ba 6c 69 65 6e 74 	movabs $0x6e7520746e65696c,%rdx
    33fb:	20 75 6e 
    33fe:	48 89 45 00          	mov    %rax,0x0(%rbp)
    3402:	48 89 55 08          	mov    %rdx,0x8(%rbp)
    3406:	48 b8 61 62 6c 65 20 	movabs $0x206f7420656c6261,%rax
    340d:	74 6f 20 
    3410:	48 ba 72 65 61 64 20 	movabs $0x6174732064616572,%rdx
    3417:	73 74 61 
    341a:	48 89 45 10          	mov    %rax,0x10(%rbp)
    341e:	48 89 55 18          	mov    %rdx,0x18(%rbp)
    3422:	48 b8 74 75 73 20 6d 	movabs $0x7373656d20737574,%rax
    3429:	65 73 73 
    342c:	48 ba 61 67 65 20 66 	movabs $0x6d6f726620656761,%rdx
    3433:	72 6f 6d 
    3436:	48 89 45 20          	mov    %rax,0x20(%rbp)
    343a:	48 89 55 28          	mov    %rdx,0x28(%rbp)
    343e:	48 b8 20 72 65 73 75 	movabs $0x20746c7573657220,%rax
    3445:	6c 74 20 
    3448:	48 89 45 30          	mov    %rax,0x30(%rbp)
    344c:	c7 45 38 73 65 72 76 	movl   $0x76726573,0x38(%rbp)
    3453:	66 c7 45 3c 65 72    	movw   $0x7265,0x3c(%rbp)
    3459:	c6 45 3e 00          	movb   $0x0,0x3e(%rbp)
    345d:	89 df                	mov    %ebx,%edi
    345f:	e8 9c de ff ff       	callq  1300 <close@plt>
    3464:	b8 ff ff ff ff       	mov    $0xffffffff,%eax
    3469:	e9 a4 fb ff ff       	jmpq   3012 <submitr+0x2f8>
    346e:	4c 8d 8c 24 50 80 00 	lea    0x8050(%rsp),%r9
    3475:	00 
    3476:	48 8d 0d 4b 13 00 00 	lea    0x134b(%rip),%rcx        # 47c8 <trans_char+0x78>
    347d:	48 c7 c2 ff ff ff ff 	mov    $0xffffffffffffffff,%rdx
    3484:	be 01 00 00 00       	mov    $0x1,%esi
    3489:	48 89 ef             	mov    %rbp,%rdi
    348c:	b8 00 00 00 00       	mov    $0x0,%eax
    3491:	e8 aa df ff ff       	callq  1440 <__sprintf_chk@plt>
    3496:	89 df                	mov    %ebx,%edi
    3498:	e8 63 de ff ff       	callq  1300 <close@plt>
    349d:	b8 ff ff ff ff       	mov    $0xffffffff,%eax
    34a2:	e9 6b fb ff ff       	jmpq   3012 <submitr+0x2f8>
    34a7:	e8 14 de ff ff       	callq  12c0 <__stack_chk_fail@plt>

00000000000034ac <init_timeout>:
    34ac:	f3 0f 1e fa          	endbr64 
    34b0:	85 ff                	test   %edi,%edi
    34b2:	74 26                	je     34da <init_timeout+0x2e>
    34b4:	53                   	push   %rbx
    34b5:	89 fb                	mov    %edi,%ebx
    34b7:	78 1a                	js     34d3 <init_timeout+0x27>
    34b9:	48 8d 35 8e f5 ff ff 	lea    -0xa72(%rip),%rsi        # 2a4e <sigalrm_handler>
    34c0:	bf 0e 00 00 00       	mov    $0xe,%edi
    34c5:	e8 56 de ff ff       	callq  1320 <signal@plt>
    34ca:	89 df                	mov    %ebx,%edi
    34cc:	e8 1f de ff ff       	callq  12f0 <alarm@plt>
    34d1:	5b                   	pop    %rbx
    34d2:	c3                   	retq   
    34d3:	bb 00 00 00 00       	mov    $0x0,%ebx
    34d8:	eb df                	jmp    34b9 <init_timeout+0xd>
    34da:	c3                   	retq   

00000000000034db <init_driver>:
    34db:	f3 0f 1e fa          	endbr64 
    34df:	41 54                	push   %r12
    34e1:	55                   	push   %rbp
    34e2:	53                   	push   %rbx
    34e3:	48 83 ec 20          	sub    $0x20,%rsp
    34e7:	48 89 fd             	mov    %rdi,%rbp
    34ea:	64 48 8b 04 25 28 00 	mov    %fs:0x28,%rax
    34f1:	00 00 
    34f3:	48 89 44 24 18       	mov    %rax,0x18(%rsp)
    34f8:	31 c0                	xor    %eax,%eax
    34fa:	be 01 00 00 00       	mov    $0x1,%esi
    34ff:	bf 0d 00 00 00       	mov    $0xd,%edi
    3504:	e8 17 de ff ff       	callq  1320 <signal@plt>
    3509:	be 01 00 00 00       	mov    $0x1,%esi
    350e:	bf 1d 00 00 00       	mov    $0x1d,%edi
    3513:	e8 08 de ff ff       	callq  1320 <signal@plt>
    3518:	be 01 00 00 00       	mov    $0x1,%esi
    351d:	bf 1d 00 00 00       	mov    $0x1d,%edi
    3522:	e8 f9 dd ff ff       	callq  1320 <signal@plt>
    3527:	ba 00 00 00 00       	mov    $0x0,%edx
    352c:	be 01 00 00 00       	mov    $0x1,%esi
    3531:	bf 02 00 00 00       	mov    $0x2,%edi
    3536:	e8 15 df ff ff       	callq  1450 <socket@plt>
    353b:	85 c0                	test   %eax,%eax
    353d:	0f 88 9c 00 00 00    	js     35df <init_driver+0x104>
    3543:	89 c3                	mov    %eax,%ebx
    3545:	48 8d 3d aa 0d 00 00 	lea    0xdaa(%rip),%rdi        # 42f6 <_IO_stdin_used+0x2f6>
    354c:	e8 df dd ff ff       	callq  1330 <gethostbyname@plt>
    3551:	48 85 c0             	test   %rax,%rax
    3554:	0f 84 d1 00 00 00    	je     362b <init_driver+0x150>
    355a:	49 89 e4             	mov    %rsp,%r12
    355d:	48 c7 04 24 00 00 00 	movq   $0x0,(%rsp)
    3564:	00 
    3565:	48 c7 44 24 08 00 00 	movq   $0x0,0x8(%rsp)
    356c:	00 00 
    356e:	66 c7 04 24 02 00    	movw   $0x2,(%rsp)
    3574:	48 63 50 14          	movslq 0x14(%rax),%rdx
    3578:	48 8b 40 18          	mov    0x18(%rax),%rax
    357c:	48 8b 30             	mov    (%rax),%rsi
    357f:	48 8d 7c 24 04       	lea    0x4(%rsp),%rdi
    3584:	b9 0c 00 00 00       	mov    $0xc,%ecx
    3589:	e8 b2 dd ff ff       	callq  1340 <__memmove_chk@plt>
    358e:	66 c7 44 24 02 3c 9a 	movw   $0x9a3c,0x2(%rsp)
    3595:	ba 10 00 00 00       	mov    $0x10,%edx
    359a:	4c 89 e6             	mov    %r12,%rsi
    359d:	89 df                	mov    %ebx,%edi
    359f:	e8 6c de ff ff       	callq  1410 <connect@plt>
    35a4:	85 c0                	test   %eax,%eax
    35a6:	0f 88 e7 00 00 00    	js     3693 <init_driver+0x1b8>
    35ac:	89 df                	mov    %ebx,%edi
    35ae:	e8 4d dd ff ff       	callq  1300 <close@plt>
    35b3:	66 c7 45 00 4f 4b    	movw   $0x4b4f,0x0(%rbp)
    35b9:	c6 45 02 00          	movb   $0x0,0x2(%rbp)
    35bd:	b8 00 00 00 00       	mov    $0x0,%eax
    35c2:	48 8b 4c 24 18       	mov    0x18(%rsp),%rcx
    35c7:	64 48 33 0c 25 28 00 	xor    %fs:0x28,%rcx
    35ce:	00 00 
    35d0:	0f 85 10 01 00 00    	jne    36e6 <init_driver+0x20b>
    35d6:	48 83 c4 20          	add    $0x20,%rsp
    35da:	5b                   	pop    %rbx
    35db:	5d                   	pop    %rbp
    35dc:	41 5c                	pop    %r12
    35de:	c3                   	retq   
    35df:	48 b8 45 72 72 6f 72 	movabs $0x43203a726f727245,%rax
    35e6:	3a 20 43 
    35e9:	48 ba 6c 69 65 6e 74 	movabs $0x6e7520746e65696c,%rdx
    35f0:	20 75 6e 
    35f3:	48 89 45 00          	mov    %rax,0x0(%rbp)
    35f7:	48 89 55 08          	mov    %rdx,0x8(%rbp)
    35fb:	48 b8 61 62 6c 65 20 	movabs $0x206f7420656c6261,%rax
    3602:	74 6f 20 
    3605:	48 ba 63 72 65 61 74 	movabs $0x7320657461657263,%rdx
    360c:	65 20 73 
    360f:	48 89 45 10          	mov    %rax,0x10(%rbp)
    3613:	48 89 55 18          	mov    %rdx,0x18(%rbp)
    3617:	c7 45 20 6f 63 6b 65 	movl   $0x656b636f,0x20(%rbp)
    361e:	66 c7 45 24 74 00    	movw   $0x74,0x24(%rbp)
    3624:	b8 ff ff ff ff       	mov    $0xffffffff,%eax
    3629:	eb 97                	jmp    35c2 <init_driver+0xe7>
    362b:	48 b8 45 72 72 6f 72 	movabs $0x44203a726f727245,%rax
    3632:	3a 20 44 
    3635:	48 ba 4e 53 20 69 73 	movabs $0x6e7520736920534e,%rdx
    363c:	20 75 6e 
    363f:	48 89 45 00          	mov    %rax,0x0(%rbp)
    3643:	48 89 55 08          	mov    %rdx,0x8(%rbp)
    3647:	48 b8 61 62 6c 65 20 	movabs $0x206f7420656c6261,%rax
    364e:	74 6f 20 
    3651:	48 ba 72 65 73 6f 6c 	movabs $0x2065766c6f736572,%rdx
    3658:	76 65 20 
    365b:	48 89 45 10          	mov    %rax,0x10(%rbp)
    365f:	48 89 55 18          	mov    %rdx,0x18(%rbp)
    3663:	48 b8 73 65 72 76 65 	movabs $0x6120726576726573,%rax
    366a:	72 20 61 
    366d:	48 89 45 20          	mov    %rax,0x20(%rbp)
    3671:	c7 45 28 64 64 72 65 	movl   $0x65726464,0x28(%rbp)
    3678:	66 c7 45 2c 73 73    	movw   $0x7373,0x2c(%rbp)
    367e:	c6 45 2e 00          	movb   $0x0,0x2e(%rbp)
    3682:	89 df                	mov    %ebx,%edi
    3684:	e8 77 dc ff ff       	callq  1300 <close@plt>
    3689:	b8 ff ff ff ff       	mov    $0xffffffff,%eax
    368e:	e9 2f ff ff ff       	jmpq   35c2 <init_driver+0xe7>
    3693:	48 b8 45 72 72 6f 72 	movabs $0x55203a726f727245,%rax
    369a:	3a 20 55 
    369d:	48 ba 6e 61 62 6c 65 	movabs $0x6f7420656c62616e,%rdx
    36a4:	20 74 6f 
    36a7:	48 89 45 00          	mov    %rax,0x0(%rbp)
    36ab:	48 89 55 08          	mov    %rdx,0x8(%rbp)
    36af:	48 b8 20 63 6f 6e 6e 	movabs $0x7463656e6e6f6320,%rax
    36b6:	65 63 74 
    36b9:	48 ba 20 74 6f 20 73 	movabs $0x76726573206f7420,%rdx
    36c0:	65 72 76 
    36c3:	48 89 45 10          	mov    %rax,0x10(%rbp)
    36c7:	48 89 55 18          	mov    %rdx,0x18(%rbp)
    36cb:	66 c7 45 20 65 72    	movw   $0x7265,0x20(%rbp)
    36d1:	c6 45 22 00          	movb   $0x0,0x22(%rbp)
    36d5:	89 df                	mov    %ebx,%edi
    36d7:	e8 24 dc ff ff       	callq  1300 <close@plt>
    36dc:	b8 ff ff ff ff       	mov    $0xffffffff,%eax
    36e1:	e9 dc fe ff ff       	jmpq   35c2 <init_driver+0xe7>
    36e6:	e8 d5 db ff ff       	callq  12c0 <__stack_chk_fail@plt>

00000000000036eb <driver_post>:
    36eb:	f3 0f 1e fa          	endbr64 
    36ef:	53                   	push   %rbx
    36f0:	4c 89 cb             	mov    %r9,%rbx
    36f3:	45 85 c0             	test   %r8d,%r8d
    36f6:	75 18                	jne    3710 <driver_post+0x25>
    36f8:	48 85 ff             	test   %rdi,%rdi
    36fb:	74 05                	je     3702 <driver_post+0x17>
    36fd:	80 3f 00             	cmpb   $0x0,(%rdi)
    3700:	75 37                	jne    3739 <driver_post+0x4e>
    3702:	66 c7 03 4f 4b       	movw   $0x4b4f,(%rbx)
    3707:	c6 43 02 00          	movb   $0x0,0x2(%rbx)
    370b:	44 89 c0             	mov    %r8d,%eax
    370e:	5b                   	pop    %rbx
    370f:	c3                   	retq   
    3710:	48 89 ca             	mov    %rcx,%rdx
    3713:	48 8d 35 ff 10 00 00 	lea    0x10ff(%rip),%rsi        # 4819 <trans_char+0xc9>
    371a:	bf 01 00 00 00       	mov    $0x1,%edi
    371f:	b8 00 00 00 00       	mov    $0x0,%eax
    3724:	e8 87 dc ff ff       	callq  13b0 <__printf_chk@plt>
    3729:	66 c7 03 4f 4b       	movw   $0x4b4f,(%rbx)
    372e:	c6 43 02 00          	movb   $0x0,0x2(%rbx)
    3732:	b8 00 00 00 00       	mov    $0x0,%eax
    3737:	eb d5                	jmp    370e <driver_post+0x23>
    3739:	48 83 ec 08          	sub    $0x8,%rsp
    373d:	41 51                	push   %r9
    373f:	49 89 c9             	mov    %rcx,%r9
    3742:	49 89 d0             	mov    %rdx,%r8
    3745:	48 89 f9             	mov    %rdi,%rcx
    3748:	48 89 f2             	mov    %rsi,%rdx
    374b:	be 9a 3c 00 00       	mov    $0x3c9a,%esi
    3750:	48 8d 3d 9f 0b 00 00 	lea    0xb9f(%rip),%rdi        # 42f6 <_IO_stdin_used+0x2f6>
    3757:	e8 be f5 ff ff       	callq  2d1a <submitr>
    375c:	48 83 c4 10          	add    $0x10,%rsp
    3760:	eb ac                	jmp    370e <driver_post+0x23>

0000000000003762 <check>:
    3762:	f3 0f 1e fa          	endbr64 
    3766:	89 f8                	mov    %edi,%eax
    3768:	c1 e8 1c             	shr    $0x1c,%eax
    376b:	74 1d                	je     378a <check+0x28>
    376d:	b9 00 00 00 00       	mov    $0x0,%ecx
    3772:	83 f9 1f             	cmp    $0x1f,%ecx
    3775:	7f 0d                	jg     3784 <check+0x22>
    3777:	89 f8                	mov    %edi,%eax
    3779:	d3 e8                	shr    %cl,%eax
    377b:	3c 0a                	cmp    $0xa,%al
    377d:	74 11                	je     3790 <check+0x2e>
    377f:	83 c1 08             	add    $0x8,%ecx
    3782:	eb ee                	jmp    3772 <check+0x10>
    3784:	b8 01 00 00 00       	mov    $0x1,%eax
    3789:	c3                   	retq   
    378a:	b8 00 00 00 00       	mov    $0x0,%eax
    378f:	c3                   	retq   
    3790:	b8 00 00 00 00       	mov    $0x0,%eax
    3795:	c3                   	retq   

0000000000003796 <gencookie>:
    3796:	f3 0f 1e fa          	endbr64 
    379a:	53                   	push   %rbx
    379b:	83 c7 01             	add    $0x1,%edi
    379e:	e8 cd da ff ff       	callq  1270 <srandom@plt>
    37a3:	e8 d8 db ff ff       	callq  1380 <random@plt>
    37a8:	48 89 c7             	mov    %rax,%rdi
    37ab:	89 c3                	mov    %eax,%ebx
    37ad:	e8 b0 ff ff ff       	callq  3762 <check>
    37b2:	85 c0                	test   %eax,%eax
    37b4:	74 ed                	je     37a3 <gencookie+0xd>
    37b6:	89 d8                	mov    %ebx,%eax
    37b8:	5b                   	pop    %rbx
    37b9:	c3                   	retq   
    37ba:	66 0f 1f 44 00 00    	nopw   0x0(%rax,%rax,1)

00000000000037c0 <__libc_csu_init>:
    37c0:	f3 0f 1e fa          	endbr64 
    37c4:	41 57                	push   %r15
    37c6:	4c 8d 3d eb 34 00 00 	lea    0x34eb(%rip),%r15        # 6cb8 <__frame_dummy_init_array_entry>
    37cd:	41 56                	push   %r14
    37cf:	49 89 d6             	mov    %rdx,%r14
    37d2:	41 55                	push   %r13
    37d4:	49 89 f5             	mov    %rsi,%r13
    37d7:	41 54                	push   %r12
    37d9:	41 89 fc             	mov    %edi,%r12d
    37dc:	55                   	push   %rbp
    37dd:	48 8d 2d dc 34 00 00 	lea    0x34dc(%rip),%rbp        # 6cc0 <__do_global_dtors_aux_fini_array_entry>
    37e4:	53                   	push   %rbx
    37e5:	4c 29 fd             	sub    %r15,%rbp
    37e8:	48 83 ec 08          	sub    $0x8,%rsp
    37ec:	e8 0f d8 ff ff       	callq  1000 <_init>
    37f1:	48 c1 fd 03          	sar    $0x3,%rbp
    37f5:	74 1f                	je     3816 <__libc_csu_init+0x56>
    37f7:	31 db                	xor    %ebx,%ebx
    37f9:	0f 1f 80 00 00 00 00 	nopl   0x0(%rax)
    3800:	4c 89 f2             	mov    %r14,%rdx
    3803:	4c 89 ee             	mov    %r13,%rsi
    3806:	44 89 e7             	mov    %r12d,%edi
    3809:	41 ff 14 df          	callq  *(%r15,%rbx,8)
    380d:	48 83 c3 01          	add    $0x1,%rbx
    3811:	48 39 dd             	cmp    %rbx,%rbp
    3814:	75 ea                	jne    3800 <__libc_csu_init+0x40>
    3816:	48 83 c4 08          	add    $0x8,%rsp
    381a:	5b                   	pop    %rbx
    381b:	5d                   	pop    %rbp
    381c:	41 5c                	pop    %r12
    381e:	41 5d                	pop    %r13
    3820:	41 5e                	pop    %r14
    3822:	41 5f                	pop    %r15
    3824:	c3                   	retq   
    3825:	66 66 2e 0f 1f 84 00 	data16 nopw %cs:0x0(%rax,%rax,1)
    382c:	00 00 00 00 

0000000000003830 <__libc_csu_fini>:
    3830:	f3 0f 1e fa          	endbr64 
    3834:	c3                   	retq   

Disassembly of section .fini:

0000000000003838 <_fini>:
    3838:	f3 0f 1e fa          	endbr64 
    383c:	48 83 ec 08          	sub    $0x8,%rsp
    3840:	48 83 c4 08          	add    $0x8,%rsp
    3844:	c3                   	retq   
